Microchip Technology Inc, vv3_30 (A) 

Tool Name:
  /Applications/microchip/mplabc30/v3.30c/bin/bin/../bin/pic30-coff-ld

Command:
  -p24FJ256DA206 \
  -o \
  dist/IOIO0023/production/app_layer_v1.production.cof \
  -L/Applications/microchip/mplabc30/v3.30c/bin/bin/.. \
  -L/Applications/microchip/mplabc30/v3.30c/bin/bin/../../lib \
  -L/Applications/microchip/mplabc30/v3.30c/bin/bin/../../lib/PIC24E \
  -L/Applications/microchip/mplabc30/v3.30c/bin/bin/../../support/PIC24E/gld \
  -L/Applications/microchip/mplabc30/v3.30c/bin/bin/../../lib/PIC24F \
  -L/Applications/microchip/mplabc30/v3.30c/bin/bin/../../support/PIC24F/gld \
  -L/Applications/microchip/mplabc30/v3.30c/bin/bin/../../lib/PIC24H \
  -L/Applications/microchip/mplabc30/v3.30c/bin/bin/../../support/PIC24H/gld \
  -L/Applications/microchip/mplabc30/v3.30c/bin/bin/../../lib/dsPIC30F \
  -L/Applications/microchip/mplabc30/v3.30c/bin/bin/../../support/dsPIC30F/gld \
  -L/Applications/microchip/mplabc30/v3.30c/bin/bin/../../lib/dsPIC33E \
  -L/Applications/microchip/mplabc30/v3.30c/bin/bin/../../support/dsPIC33E/gld \
  -L/Applications/microchip/mplabc30/v3.30c/bin/bin/../../lib/dsPIC33F \
  -L/Applications/microchip/mplabc30/v3.30c/bin/bin/../../support/dsPIC33F/gld \
  build/IOIO0023/production/_ext/1270477542/logging.o \
  build/IOIO0023/production/_ext/1537399865/uart2.o \
  build/IOIO0023/production/adc.o \
  build/IOIO0023/production/byte_queue.o \
  build/IOIO0023/production/digital.o \
  build/IOIO0023/production/features.o \
  build/IOIO0023/production/i2c.o \
  build/IOIO0023/production/icsp.o \
  build/IOIO0023/production/incap.o \
  build/IOIO0023/production/main.o \
  build/IOIO0023/production/pins.o \
  build/IOIO0023/production/protocol.o \
  build/IOIO0023/production/pwm.o \
  build/IOIO0023/production/spi.o \
  build/IOIO0023/production/timers.o \
  build/IOIO0023/production/uart.o \
  build/IOIO0023/production/rgb_led_matrix.o \
  build/IOIO0023/production/pixel.o \
  ../libusb/dist/PIC24FJ256DA206_ADB/production/libusb.a \
  ../libadb/dist/PIC24FJ256DA206/production/libadb.a \
  ../libbtstack/dist/PIC24FJ256DA206/production/libbtstack.a \
  ../libconn/dist/PIC24FJ256DA206/production/libconn.a \
  ../libsdcard.X/dist/PIC24FJ256DA206/production/libsdcard.X.a \
  --defsym=__MPLAB_BUILD=1 \
  --heap=1536 \
  --gc-sections \
  --library=conn \
  --library=adb \
  --library=usb \
  --library=btstack \
  -L../libconn/dist/PIC24FJ256DA206/production \
  -L../libadb/dist/PIC24FJ256DA206/production \
  -L../libbtstack/dist/PIC24FJ256DA206/production \
  -L../libusb/dist/PIC24FJ256DA206/production \
  -Map=foo.map \
  --report-mem \
  -T \
  dummy.gld.00 \
  -T \
  dummy.gld.01 \
  -start-group \
  --library=pic30-coff \
  --library=m-coff \
  --library=c-coff \
  -end-group \

Archive member included because of file (symbol)

../libconn/dist/PIC24FJ256DA206/production/libconn.a(connection.o)
                              build/IOIO0023/production/main.o (ConnectionInit)
../libconn/dist/PIC24FJ256DA206/production/libconn.a(accessory.o)
                              ../libconn/dist/PIC24FJ256DA206/production/libconn.a(connection.o) (AccessoryInit)
../libconn/dist/PIC24FJ256DA206/production/libconn.a(bt_app.o)
                              ../libconn/dist/PIC24FJ256DA206/production/libconn.a(connection.o) (BTInit)
../libsdcard.X/dist/PIC24FJ256DA206/production/libsdcard.X.a(FSIO.o)
                              build/IOIO0023/production/pixel.o (FSfclose)
../libsdcard.X/dist/PIC24FJ256DA206/production/libsdcard.X.a(SD-SPI.o)
                              ../libsdcard.X/dist/PIC24FJ256DA206/production/libsdcard.X.a(FSIO.o) (MDD_SDSPI_InitIO)
../libadb/dist/PIC24FJ256DA206/production/libadb.a(adb.o)
                              ../libconn/dist/PIC24FJ256DA206/production/libconn.a(connection.o) (ADBAttached)
../libadb/dist/PIC24FJ256DA206/production/libadb.a(adb_file.o)
                              ../libconn/dist/PIC24FJ256DA206/production/libconn.a(connection.o) (ADBFileInit)
../libadb/dist/PIC24FJ256DA206/production/libadb.a(adb_packet.o)
                              ../libadb/dist/PIC24FJ256DA206/production/libadb.a(adb.o) (ADBPacketSend)
../libusb/dist/PIC24FJ256DA206/production/libusb.a(usb_host_android.o)
                              ../libconn/dist/PIC24FJ256DA206/production/libconn.a(connection.o) (USBHostAndroidReset)
../libusb/dist/PIC24FJ256DA206/production/libusb.a(usb_host.o)
                              ../libconn/dist/PIC24FJ256DA206/production/libconn.a(connection.o) (USBHostDeviceStatus)
../libusb/dist/PIC24FJ256DA206/production/libusb.a(usb_host_bluetooth.o)
                              ../libconn/dist/PIC24FJ256DA206/production/libconn.a(connection.o) (USBHostBluetoothTasks)
../libusb/dist/PIC24FJ256DA206/production/libusb.a(usb_config.o)
                              ../libusb/dist/PIC24FJ256DA206/production/libusb.a(usb_host.o) (usbTPL)
../libbtstack/dist/PIC24FJ256DA206/production/libbtstack.a(hci_cmds.o)
                              ../libconn/dist/PIC24FJ256DA206/production/libconn.a(bt_app.o) (hci_read_bd_addr)
../libbtstack/dist/PIC24FJ256DA206/production/libbtstack.a(utils.o)
                              ../libconn/dist/PIC24FJ256DA206/production/libconn.a(bt_app.o) (bt_flip_addr)
../libbtstack/dist/PIC24FJ256DA206/production/libbtstack.a(hci.o)
                              ../libconn/dist/PIC24FJ256DA206/production/libconn.a(bt_app.o) (hci_init)
../libbtstack/dist/PIC24FJ256DA206/production/libbtstack.a(rfcomm.o)
                              ../libconn/dist/PIC24FJ256DA206/production/libconn.a(bt_app.o) (rfcomm_init)
../libbtstack/dist/PIC24FJ256DA206/production/libbtstack.a(btstack_memory.o)
                              ../libbtstack/dist/PIC24FJ256DA206/production/libbtstack.a(hci.o) (btstack_memory_hci_connection_get)
../libbtstack/dist/PIC24FJ256DA206/production/libbtstack.a(hci_transport_mchpusb.o)
                              ../libconn/dist/PIC24FJ256DA206/production/libconn.a(bt_app.o) (hci_transport_mchpusb_tasks)
../libbtstack/dist/PIC24FJ256DA206/production/libbtstack.a(remote_device_db_memory.o)
                              ../libconn/dist/PIC24FJ256DA206/production/libconn.a(bt_app.o) (remote_device_db_memory)
../libbtstack/dist/PIC24FJ256DA206/production/libbtstack.a(l2cap.o)
                              ../libconn/dist/PIC24FJ256DA206/production/libconn.a(bt_app.o) (l2cap_init)
../libbtstack/dist/PIC24FJ256DA206/production/libbtstack.a(sdp.o)
                              ../libconn/dist/PIC24FJ256DA206/production/libconn.a(bt_app.o) (sdp_init)
../libbtstack/dist/PIC24FJ256DA206/production/libbtstack.a(sdp_util.o)
                              ../libbtstack/dist/PIC24FJ256DA206/production/libbtstack.a(sdp.o) (de_get_size_type)
../libbtstack/dist/PIC24FJ256DA206/production/libbtstack.a(linked_list.o)
                              ../libbtstack/dist/PIC24FJ256DA206/production/libbtstack.a(rfcomm.o) (linked_list_empty)
../libbtstack/dist/PIC24FJ256DA206/production/libbtstack.a(hci_dump.o)
                              ../libbtstack/dist/PIC24FJ256DA206/production/libbtstack.a(hci.o) (hci_dump_packet)
../libbtstack/dist/PIC24FJ256DA206/production/libbtstack.a(memory_pool.o)
                              ../libbtstack/dist/PIC24FJ256DA206/production/libbtstack.a(btstack_memory.o) (memory_pool_free)
../libbtstack/dist/PIC24FJ256DA206/production/libbtstack.a(l2cap_signaling.o)
                              ../libbtstack/dist/PIC24FJ256DA206/production/libbtstack.a(l2cap.o) (l2cap_next_sig_id)
/Applications/microchip/mplabc30/v3.30c/bin/bin/../../lib/libpic30-coff.a(crt0_extended.o)
                              (_resetPRI)
/Applications/microchip/mplabc30/v3.30c/bin/bin/../../lib/libpic30-coff.a(memcpy_helper.o)
                              build/IOIO0023/production/protocol.o (_memcpy_helper)
/Applications/microchip/mplabc30/v3.30c/bin/bin/../../lib/libpic30-coff.a(data_init_extended.o)
                              /Applications/microchip/mplabc30/v3.30c/bin/bin/../../lib/libpic30-coff.a(crt0_extended.o) (_data_init_extended)
/Applications/microchip/mplabc30/v3.30c/bin/bin/../../lib/libm-coff.a(mulsi3.o)
                              ../libsdcard.X/dist/PIC24FJ256DA206/production/libsdcard.X.a(FSIO.o) (__mulsi3)
/Applications/microchip/mplabc30/v3.30c/bin/bin/../../lib/libm-coff.a(udivsi3.o)
                              ../libsdcard.X/dist/PIC24FJ256DA206/production/libsdcard.X.a(FSIO.o) (__udivsi3)
/Applications/microchip/mplabc30/v3.30c/bin/bin/../../lib/libm-coff.a(umodsi3.o)
                              ../libsdcard.X/dist/PIC24FJ256DA206/production/libsdcard.X.a(FSIO.o) (__umodsi3)
/Applications/microchip/mplabc30/v3.30c/bin/bin/../../lib/libc-coff.a(memcpy.XXo)
                              build/IOIO0023/production/byte_queue.o (memcpy)
/Applications/microchip/mplabc30/v3.30c/bin/bin/../../lib/libc-coff.a(memcmp.XXo)
                              build/IOIO0023/production/features.o (memcmp)
/Applications/microchip/mplabc30/v3.30c/bin/bin/../../lib/libc-coff.a(memset.XXo)
                              build/IOIO0023/production/rgb_led_matrix.o (memset)
/Applications/microchip/mplabc30/v3.30c/bin/bin/../../lib/libc-coff.a(sprintf_cdnopuxX.XXo)
                              ../libconn/dist/PIC24FJ256DA206/production/libconn.a(bt_app.o) (_sprintf_cdnopuxX)
/Applications/microchip/mplabc30/v3.30c/bin/bin/../../lib/libc-coff.a(strncpy.XXo)
                              ../libsdcard.X/dist/PIC24FJ256DA206/production/libsdcard.X.a(FSIO.o) (strncpy)
/Applications/microchip/mplabc30/v3.30c/bin/bin/../../lib/libc-coff.a(strlen.XXo)
                              ../libsdcard.X/dist/PIC24FJ256DA206/production/libsdcard.X.a(FSIO.o) (strlen)
/Applications/microchip/mplabc30/v3.30c/bin/bin/../../lib/libc-coff.a(toupper.XXo)
                              ../libsdcard.X/dist/PIC24FJ256DA206/production/libsdcard.X.a(FSIO.o) (toupper)
/Applications/microchip/mplabc30/v3.30c/bin/bin/../../lib/libc-coff.a(tolower.XXo)
                              ../libsdcard.X/dist/PIC24FJ256DA206/production/libsdcard.X.a(FSIO.o) (tolower)
/Applications/microchip/mplabc30/v3.30c/bin/bin/../../lib/libc-coff.a(strcpy.XXo)
                              ../libsdcard.X/dist/PIC24FJ256DA206/production/libsdcard.X.a(FSIO.o) (strcpy)
/Applications/microchip/mplabc30/v3.30c/bin/bin/../../lib/libc-coff.a(malloc.XXo)
                              ../libusb/dist/PIC24FJ256DA206/production/libusb.a(usb_host.o) (malloc)
/Applications/microchip/mplabc30/v3.30c/bin/bin/../../lib/libc-coff.a(strncmp.XXo)
                              ../libbtstack/dist/PIC24FJ256DA206/production/libbtstack.a(remote_device_db_memory.o) (strncmp)
/Applications/microchip/mplabc30/v3.30c/bin/bin/../../lib/libc-coff.a(printf_cdnopsuxX.XXo)
                              ../libbtstack/dist/PIC24FJ256DA206/production/libbtstack.a(sdp_util.o) (_printf_cdnopsuxX)
/Applications/microchip/mplabc30/v3.30c/bin/bin/../../lib/libc-coff.a(putchar.XXo)
                              ../libbtstack/dist/PIC24FJ256DA206/production/libbtstack.a(sdp_util.o) (putchar)
/Applications/microchip/mplabc30/v3.30c/bin/bin/../../lib/libc-coff.a(doprnt_cdnopuxX.XXo)
                              /Applications/microchip/mplabc30/v3.30c/bin/bin/../../lib/libc-coff.a(sprintf_cdnopuxX.XXo) (_vfprintf_cdnopuxX)
/Applications/microchip/mplabc30/v3.30c/bin/bin/../../lib/libc-coff.a(_iob.XXo)
                              /Applications/microchip/mplabc30/v3.30c/bin/bin/../../lib/libc-coff.a(printf_cdnopsuxX.XXo) (_iob)
/Applications/microchip/mplabc30/v3.30c/bin/bin/../../lib/libc-coff.a(doprnt_cdnopsuxX.XXo)
                              /Applications/microchip/mplabc30/v3.30c/bin/bin/../../lib/libc-coff.a(printf_cdnopsuxX.XXo) (_vfprintf_cdnopsuxX)
/Applications/microchip/mplabc30/v3.30c/bin/bin/../../lib/libc-coff.a(fputc.XXo)
                              /Applications/microchip/mplabc30/v3.30c/bin/bin/../../lib/libc-coff.a(putchar.XXo) (fputc)
/Applications/microchip/mplabc30/v3.30c/bin/bin/../../lib/libc-coff.a(flsbuf.XXo)
                              /Applications/microchip/mplabc30/v3.30c/bin/bin/../../lib/libc-coff.a(fputc.XXo) (_flsbuf)
/Applications/microchip/mplabc30/v3.30c/bin/bin/../../lib/libpic30-coff.a(sbrk.o)
                              /Applications/microchip/mplabc30/v3.30c/bin/bin/../../lib/libc-coff.a(malloc.XXo) (sbrk)
/Applications/microchip/mplabc30/v3.30c/bin/bin/../../lib/libpic30-coff.a(write.o)
                              /Applications/microchip/mplabc30/v3.30c/bin/bin/../../lib/libc-coff.a(fputc.XXo) (write)
/Applications/microchip/mplabc30/v3.30c/bin/bin/../../lib/libpic30-coff.a(brk.o)
                              /Applications/microchip/mplabc30/v3.30c/bin/bin/../../lib/libpic30-coff.a(sbrk.o) (brk)
/Applications/microchip/mplabc30/v3.30c/bin/bin/../../lib/libpic30-coff.a(c30_uart.o)
                              /Applications/microchip/mplabc30/v3.30c/bin/bin/../../lib/libpic30-coff.a(write.o) (__C30_UART)
/Applications/microchip/mplabc30/v3.30c/bin/bin/../../lib/libm-coff.a(divmoddi3.o)
                              /Applications/microchip/mplabc30/v3.30c/bin/bin/../../lib/libc-coff.a(doprnt_cdnopuxX.XXo) (__udivdi3)


Program Memory  [Origin = 0x5110, Length = 0x255f0]

section                    address   length (PC units)   length (bytes) (dec)
-------                    -------   -----------------   --------------------
.text                       0x5110              0x11e2          0x1ad3  (6867)
.const                      0x62f2               0xb9c          0x116a  (4458)
.text                       0x6e8e              0x50fe          0x797d  (31101)
.text.USBHostTasks          0xbf8c               0xa1c           0xf2a  (3882)
.text                       0xc9a8              0x2c08          0x420c  (16908)
.dinit                      0xf5b0               0x3ca           0x5af  (1455)
.text.rfcomm_channel_state_machine    0xf97a               0x384           0x546  (1350)
.text.packet_handler        0xfcfe               0x36a           0x51f  (1311)
.text.rfcomm_packet_handler   0x10068               0x30c           0x492  (1170)
.text                      0x10374               0x2e2           0x453  (1107)
.text.ADBTasks             0x10656               0x292           0x3db  (987)
.text                      0x108e8               0x258           0x384  (900)
.text._USB_ParseConfigurationDescriptor   0x10b40               0x258           0x384  (900)
.text                      0x10d98               0x490           0x6d8  (1752)
.text.l2cap_run            0x11228               0x242           0x363  (867)
.text                      0x1146a               0x238           0x354  (852)
.text._USB_FindNextToken   0x116a2               0x222           0x333  (819)
.text.hci_run              0x118c4               0x21e           0x32d  (813)
.text                      0x11ae2               0x3b4           0x58e  (1422)
.text.sdp_create_spp_service   0x11e96               0x192           0x25b  (603)
.text                      0x12028               0x188           0x24c  (588)
.text.l2cap_event_handler   0x121b0               0x180           0x240  (576)
.text.sdp_handle_service_search_attribute_request   0x12330               0x17c           0x23a  (570)
.text.l2cap_signaling_handler_dispatch   0x124ac               0x17a           0x237  (567)
.text.ADBFileCallback      0x12626               0x13c           0x1da  (474)
.text.hci_create_cmd_internal   0x12762               0x122           0x1b3  (435)
.text.de_traversal_dump_data   0x12884               0x122           0x1b3  (435)
.text.ADBPacketTasks       0x129a6               0x11a           0x1a7  (423)
.text.sdp_handle_service_attribute_request   0x12ac0               0x118           0x1a4  (420)
.text.rfcomm_channel_packet_handler   0x12bd8               0x112           0x19b  (411)
.text.sdp_handle_service_search_request   0x12cea               0x106           0x189  (393)
.text.PacketHandler        0x12df0               0x100           0x180  (384)
.text._USB_SetBDT          0x12ef0                0xf4           0x16e  (366)
.text.hci_send_cmd_packet   0x12fe4                0xf2           0x16b  (363)
.text.hci_power_control    0x130d6                0xe6           0x159  (345)
.text.USBHostIssueDeviceRequest   0x131bc                0xdc           0x14a  (330)
.text.l2cap_signaling_handler_channel   0x13298                0xda           0x147  (327)
.text                      0x13372                0xd4           0x13e  (318)
.text.USBHostBluetoothInit   0x13446                0xc2           0x123  (291)
.text.USBHostBluetoothTasks   0x13508                0xc2           0x123  (291)
.text.AccessoryTasks       0x135ca                0xbc           0x11a  (282)
.text.sdp_packet_handler   0x13686                0xbc           0x11a  (282)
.text.rfcomm_send_packet_for_multiplexer   0x13742                0xa6            0xf9  (249)
.text.l2cap_create_signaling_internal   0x137e8                0xa2            0xf3  (243)
.text.sdp_register_service_internal   0x1388a                0x9c            0xea  (234)
.text.l2cap_acl_handler    0x13926                0x9a            0xe7  (231)
.text.rfcomm_run           0x139c0                0x96            0xe1  (225)
.text.ConnectionTasks      0x13a56                0x8c            0xd2  (210)
.text._USB_FindDeviceLevelClientDriver   0x13ae2                0x8c            0xd2  (210)
.text._USB_FindClassDriver   0x13b6e                0x8c            0xd2  (210)
.text.rfcomm_channel_create   0x13bfa                0x8c            0xd2  (210)
.text._USB_FindServiceEndpoint   0x13c86                0x86            0xc9  (201)
.text.rfcomm_create_channel2   0x13d0c                0x80            0xc0  (192)
.text.l2cap_create_channel_internal   0x13d8c                0x7c            0xba  (186)
.text.l2cap_send_prepared   0x13e08                0x78            0xb4  (180)
.text.rfcomm_register_service2   0x13e80                0x76            0xb1  (177)
.text.sdp_traversal_filter_attributes   0x13ef6                0x76            0xb1  (177)
.text.l2cap_emit_channel_opened   0x13f6c                0x72            0xab  (171)
.text.ADBOpen              0x13fde                0x6e            0xa5  (165)
.text.sdp_attribute_list_traverse_sequence   0x1404c                0x6e            0xa5  (165)
.text.rfcomm_send_internal   0x140ba                0x6c            0xa2  (162)
.text.de_add_number        0x14126                0x6c            0xa2  (162)
.text.USBHostRead          0x14192                0x6a            0x9f  (159)
.text.USBHostWrite         0x141fc                0x6a            0x9f  (159)
.text.sdp_traversal_append_attributes   0x14266                0x68            0x9c  (156)
.text.USBHostAndroidTasks   0x142ce                0x64            0x96  (150)
.text.rfcomm_hand_out_credits   0x14332                0x64            0x96  (150)
.text.de_get_normalized_uuid   0x14396                0x64            0x96  (150)
.text.rfcomm_emit_channel_opened   0x143fa                0x62            0x93  (147)
.text.USBHostAndroidInitInterface   0x1445c                0x60            0x90  (144)
.text.USBHostTransferIsComplete   0x144bc                0x60            0x90  (144)
.text.rfcomm_channel_state_machine_2   0x1451c                0x5e            0x8d  (141)
.text._USB_NotifyClients   0x1457a                0x5c            0x8a  (138)
.text.l2cap_register_service_internal   0x145d6                0x5c            0x8a  (138)
.text.de_get_data_size     0x14632                0x5c            0x8a  (138)
.text.rfcomm_emit_channel_open_failed_outgoing_memory   0x1468e                0x5a            0x87  (135)
.text.rfcomm_multiplexer_finalize   0x146e8                0x5a            0x87  (135)
.text.USBHostBluetoothCallback   0x14742                0x5a            0x87  (135)
.text.l2cap_send_prepared_connectionless   0x1479c                0x5a            0x87  (135)
.text.ADBFileRead          0x147f6                0x58            0x84  (132)
.text._USB_InitRead        0x1484e                0x58            0x84  (132)
.text._USB_InitWrite       0x148a6                0x58            0x84  (132)
.text.put_name             0x148fe                0x58            0x84  (132)
.text.persistent_rfcomm_channel   0x14956                0x58            0x84  (132)
.text.de_add_data          0x149ae                0x58            0x84  (132)
.text._USB_InitControlWrite   0x14a06                0x54            0x7e  (126)
.text.btstack_memory_init   0x14a5a                0x54            0x7e  (126)
.text.BTInit               0x14aae                0x52            0x7b  (123)
.text.USBHostBluetoothWrite   0x14b00                0x52            0x7b  (123)
.text.ADBFileTasks         0x14b52                0x50            0x78  (120)
.text.put_link_key         0x14ba2                0x50            0x78  (120)
.text._USB_FreeConfigMemory   0x14bf2                0x4c            0x72  (114)
.text.hci_emit_remote_name_cached   0x14c3e                0x4c            0x72  (114)
.text.sdp_get_service_record_handle   0x14c8a                0x4c            0x72  (114)
.text.sdp_traversal_attributeID_search   0x14cd6                0x4c            0x72  (114)
.text.de_traverse_sequence   0x14d22                0x4c            0x72  (114)
.text.rfcomm_emit_connection_request   0x14d6e                0x4a            0x6f  (111)
.text.rfcomm_multiplexer_create_for_addr   0x14db8                0x4a            0x6f  (111)
.text                      0x14e02                0x48            0x6c  (108)
.text.ConnAccessoryTasks   0x14e4a                0x48            0x6c  (108)
.text._USB_InitControlRead   0x14e92                0x48            0x6c  (108)
.text.sdp_traversal_set_attribute_for_id   0x14eda                0x48            0x6c  (108)
.text.hci_send_acl_packet   0x14f22                0x46            0x69  (105)
.text.hci_emit_connection_complete   0x14f68                0x44            0x66  (102)
.text.l2cap_handle_connection_failed_for_addr   0x14fac                0x44            0x66  (102)
.text.l2cap_signaling_handle_configure_request   0x14ff0                0x42            0x63  (99)
.text.ADBPacketSend        0x15032                0x40            0x60  (96)
.text.create_connection_for_addr   0x15072                0x40            0x60  (96)
.text.l2cap_emit_credits   0x150b2                0x40            0x60  (96)
.text.sdp_traversal_contains_UUID128   0x150f2                0x40            0x60  (96)
.text._USB_SendToken       0x15132                0x3e            0x5d  (93)
.text.hci_emit_disconnection_complete   0x15170                0x3e            0x5d  (93)
.text._USB_ResetDATA0      0x151ae                0x3c            0x5a  (90)
.text.USBHostSetDeviceConfiguration   0x151ea                0x3c            0x5a  (90)
.text._USB_FreeMemory      0x15226                0x3c            0x5a  (90)
.text.hci_init             0x15262                0x3c            0x5a  (90)
.text.rfcomm_close_connection   0x1529e                0x3c            0x5a  (90)
.text.l2cap_hand_out_credits   0x152da                0x3c            0x5a  (90)
.text.l2cap_send_signaling_packet   0x15316                0x3c            0x5a  (90)
.text.l2cap_close_connection   0x15352                0x3c            0x5a  (90)
.text.spd_append_range     0x1538e                0x3c            0x5a  (90)
.text.USBHostAndroidRead   0x153ca                0x3a            0x57  (87)
.text.rfcomm_unregister_service_internal   0x15404                0x3a            0x57  (87)
.text.get_name             0x1543e                0x3a            0x57  (87)
.text.get_link_key         0x15478                0x3a            0x57  (87)
.text.l2cap_send_connectionless   0x154b2                0x3a            0x57  (87)
.text.rfcomm_emit_channel_closed   0x154ec                0x38            0x54  (84)
.text.rfcomm_accept_connection_internal   0x15524                0x38            0x54  (84)
.text.l2cap_emit_service_registered   0x1555c                0x38            0x54  (84)
.text.de_add_uuid128       0x15594                0x38            0x54  (84)
.text.USBHostAndroidInitDevice   0x155cc                0x36            0x51  (81)
.text.USBHostAndroidWrite   0x15602                0x36            0x51  (81)
.text.USBHostDeviceStatus   0x15638                0x36            0x51  (81)
.text.USBHostInit          0x1566e                0x36            0x51  (81)
.text.USBHostShutdown      0x156a4                0x36            0x51  (81)
.text.l2cap_emit_channel_closed   0x156da                0x36            0x51  (81)
.text.l2cap_unregister_service_internal   0x15710                0x36            0x51  (81)
.text.l2cap_send_internal   0x15746                0x36            0x51  (81)
.text.ADBPacketRecvStatus   0x1577c                0x34            0x4e  (78)
.text._USB_CheckCommandAndEnumerationAttempts   0x157b0                0x34            0x4e  (78)
.text.hci_emit_nr_connections_changed   0x157e4                0x34            0x4e  (78)
.text.rfcomm_can_send      0x15818                0x34            0x4e  (78)
.text.ADBReset             0x1584c                0x32            0x4b  (75)
.text._USB_TransferInProgress   0x1587e                0x32            0x4b  (75)
.text.USBHostSetNAKTimeout   0x158b0                0x32            0x4b  (75)
.text.bd_addr_to_str       0x158e2                0x32            0x4b  (75)
.text.rfcomm_emit_service_registered   0x15914                0x32            0x4b  (75)
.text.ConnectionCanOpenChannel   0x15946                0x30            0x48  (72)
.text._USB_FindEndpoint    0x15976                0x30            0x48  (72)
.text.hci_can_send_packet_now   0x159a6                0x30            0x48  (72)
.text.rfcomm_multiplexer_opened   0x159d6                0x30            0x48  (72)
.text.sdp_create_service_record_handle   0x15a06                0x30            0x48  (72)
.text.USBHostBluetoothEventHandler   0x15a36                0x2e            0x45  (69)
.text.hci_emit_l2cap_check_timeout   0x15a64                0x2e            0x45  (69)
.text.l2cap_register_signaling_response   0x15a92                0x2e            0x45  (69)
.text.sdp_create_error_response   0x15ac0                0x2e            0x45  (69)
.text.sdp_traversal_match_pattern   0x15aee                0x2e            0x45  (69)
.text.ConnectionTypeSupported   0x15b1c                0x2c            0x42  (66)
.text.USBHostBluetoothRead   0x15b48                0x2c            0x42  (66)
.text.USBHostClearEndpointErrors   0x15b74                0x2a            0x3f  (63)
.text.rfcomm_send_uih_msc_rsp   0x15b9e                0x2a            0x3f  (63)
.text.rfcomm_channel_send_credits   0x15bc8                0x2a            0x3f  (63)
.text.hci_transport_mchpusb_instance   0x15bf2                0x2a            0x3f  (63)
.text.sdp_filter_attributes_in_attributeIDList   0x15c1c                0x2a            0x3f  (63)
.text.AccessoryCanWrite    0x15c46                0x28            0x3c  (60)
.text.USBHostVbusEvent     0x15c6e                0x28            0x3c  (60)
.text.hci_emit_state       0x15c96                0x28            0x3c  (60)
.text.hci_authentication_active_for_handle   0x15cbe                0x28            0x3c  (60)
.text.sdp_unregister_service_internal   0x15ce6                0x28            0x3c  (60)
.text.ConnectionSend       0x15d0e                0x26            0x39  (57)
.text.connection_for_address   0x15d34                0x26            0x39  (57)
.text.hci_emit_discoverable_enabled   0x15d5a                0x26            0x39  (57)
.text.hci_emit_system_bluetooth_enabled   0x15d80                0x26            0x39  (57)
.text.hci_add_connection_flags_for_flipped_bd_addr   0x15da6                0x26            0x39  (57)
.text.rfcomm_multiplexer_for_addr   0x15dcc                0x26            0x39  (57)
.text.rfcomm_grant_credits   0x15df2                0x26            0x39  (57)
.text.usb_send_packet      0x15e18                0x26            0x39  (57)
.text.de_store_descriptor_with_len   0x15e3e                0x26            0x39  (57)
.text.sdp_traversal_get_filtered_size   0x15e64                0x26            0x39  (57)
.text.ConnectionCanSend    0x15e8a                0x24            0x36  (54)
.text.ADBChecksum          0x15eae                0x24            0x36  (54)
.text.get_item             0x15ed2                0x24            0x36  (54)
.text.sdp_try_respond      0x15ef6                0x24            0x36  (54)
.text.ADBFileClose         0x15f1a                0x22            0x33  (51)
.text.USBHostAndroidEventHandler   0x15f3c                0x22            0x33  (51)
.text.USBHostTerminateTransfer   0x15f5e                0x22            0x33  (51)
.text.crc8_check           0x15f80                0x22            0x33  (51)
.text.hci_emit_hci_open_failed   0x15fa2                0x22            0x33  (51)
.text.hci_shutdown_connection   0x15fc4                0x22            0x33  (51)
.text.rfcomm_channel_accept_pn   0x15fe6                0x22            0x33  (51)
.text.rfcomm_decline_connection_internal   0x16008                0x22            0x33  (51)
.text.hci_transport_mchpusb_tasks   0x1602a                0x22            0x33  (51)
.text.delete_link_key      0x1604c                0x22            0x33  (51)
.text.delete_name          0x1606e                0x22            0x33  (51)
.text.l2cap_can_send_packet_now   0x16090                0x22            0x33  (51)
.text.de_pop_sequence      0x160b2                0x22            0x33  (51)
.text.ADBChannelReady      0x160d4                0x20            0x30  (48)
.text.rfcomm_channel_for_multiplexer_and_dlci   0x160f4                0x20            0x30  (48)
.text.usb_can_send_packet   0x16114                0x20            0x30  (48)
.text.l2cap_init           0x16134                0x20            0x30  (48)
.text.l2cap_finialize_channel_close   0x16154                0x20            0x30  (48)
.text.USBHostAndroidRxIsComplete   0x16174                0x1e            0x2d  (45)
.text.USBHostResumeDevice   0x16192                0x1e            0x2d  (45)
.text.USBHostSuspendDevice   0x161b0                0x1e            0x2d  (45)
.text.hci_power_control_off   0x161ce                0x1e            0x2d  (45)
.text.l2cap_dispatch       0x161ec                0x1e            0x2d  (45)
.text.l2cap_decline_connection_internal   0x1620a                0x1e            0x2d  (45)
.text.sdp_get_record_for_handle   0x16228                0x1e            0x2d  (45)
.text.USBHostResetDevice   0x16246                0x1c            0x2a  (42)
.text.net_store_32         0x16262                0x1c            0x2a  (42)
.text.crc8                 0x1627e                0x1c            0x2a  (42)
.text.hci_number_free_acl_slots   0x1629a                0x1c            0x2a  (42)
.text.hci_number_outgoing_packets   0x162b6                0x1c            0x2a  (42)
.text.rfcomm_disconnect_internal   0x162d2                0x1c            0x2a  (42)
.text.l2cap_accept_connection_internal   0x162ee                0x1c            0x2a  (42)
.text.l2cap_disconnect_internal   0x1630a                0x1c            0x2a  (42)
.text.de_push_sequence     0x16326                0x1c            0x2a  (42)
.text.sdp_set_attribute_value_for_attribute_id   0x16342                0x1c            0x2a  (42)
.text.sdp_append_attributes_in_attributeIDList   0x1635e                0x1c            0x2a  (42)
.text.ConnectionCloseChannel   0x1637a                0x1a            0x27  (39)
.text.BTTasks              0x16394                0x1a            0x27  (39)
.text.ADBBufferUnref       0x163ae                0x1a            0x27  (39)
.text.USBHostAndroidTxIsComplete   0x163c8                0x1a            0x27  (39)
.text.bt_store_32          0x163e2                0x1a            0x27  (39)
.text.bt_flip_addr         0x163fc                0x1a            0x27  (39)
.text.connection_for_handle   0x16416                0x1a            0x27  (39)
.text.hci_close            0x16430                0x1a            0x27  (39)
.text.l2cap_get_channel_for_local_cid   0x1644a                0x1a            0x27  (39)
.text.l2cap_get_remote_mtu_for_local_cid   0x16464                0x1a            0x27  (39)
.text.l2cap_packet_handler   0x1647e                0x1a            0x27  (39)
.text.sdp_unregister_services_for_connection   0x16498                0x1a            0x27  (39)
.text.sdp_record_matches_service_search_pattern   0x164b2                0x1a            0x27  (39)
.text.USB_ApplicationEventHandler   0x164cc                0x18            0x24  (36)
.text.hci_send_cmd         0x164e4                0x18            0x24  (36)
.text.rfcomm_send_ua       0x164fc                0x18            0x24  (36)
.text.rfcomm_send_dm_pf    0x16514                0x18            0x24  (36)
.text.de_get_len           0x1652c                0x18            0x24  (36)
.text.ConnectionGetMaxPacket   0x16544                0x16            0x21  (33)
.text.ADBClose             0x1655a                0x16            0x21  (33)
.text.ADBWrite             0x16570                0x16            0x21  (33)
.text.hci_power_control_sleep   0x16586                0x16            0x21  (33)
.text.hci_discoverable_control   0x1659c                0x16            0x21  (33)
.text.rfcomm_send_sabm     0x165b2                0x16            0x21  (33)
.text.rfcomm_multiplexer_free   0x165c8                0x16            0x21  (33)
.text.rfcomm_channel_finalize   0x165de                0x16            0x21  (33)
.text.de_get_header_size   0x165f4                0x16            0x21  (33)
.text.sdp_get_attribute_value_for_attribute_id   0x1660a                0x16            0x21  (33)
.text.spd_get_filtered_size   0x16620                0x16            0x21  (33)
.text.sdp_record_contains_UUID128   0x16636                0x16            0x21  (33)
.text.sdp_attribute_list_constains_id   0x1664c                0x16            0x21  (33)
.text.de_dump_data_element   0x16662                0x16            0x21  (33)
.text.linked_list_add      0x16678                0x16            0x21  (33)
.text.linked_list_remove   0x1668e                0x16            0x21  (33)
.text.l2cap_next_sig_id    0x166a4                0x16            0x21  (33)
.text.hci_connectable_control   0x166ba                0x14            0x1e  (30)
.text.linked_list_add_tail   0x166ce                0x14            0x1e  (30)
.text.memory_pool_create   0x166e2                0x14            0x1e  (30)
.text.ADBPacketSendStatus   0x166f6                0x12            0x1b  (27)
.text.USBHostAndroidReset   0x16708                0x12            0x1b  (27)
.text.USBHostBluetoothReset   0x1671a                0x12            0x1b  (27)
.text.l2cap_register_fixed_channel   0x1672c                0x12            0x1b  (27)
.text.linked_list_get_last_item   0x1673e                0x12            0x1b  (27)
.text.ADBInit              0x16750                0x10            0x18  (24)
.text.ADBFileInit          0x16760                0x10            0x18  (24)
.text.l2cap_channel_ready_for_open   0x16770                0x10            0x18  (24)
.text                      0x16780                 0xe            0x15  (21)
.text.ConnectionInit       0x1678e                 0xe            0x15  (21)
.text.AccessoryInit        0x1679c                 0xe            0x15  (21)
.text.ADBConnected         0x167aa                 0xe            0x15  (21)
.text.hci_create_cmd       0x167b8                 0xe            0x15  (21)
.text.hci_update_scan_enable   0x167c6                 0xe            0x15  (21)
.text.sdp_normalize_uuid   0x167d4                 0xe            0x15  (21)
.text.sdp_traversal_attribute_by_id   0x167e2                 0xe            0x15  (21)
.text.USBHostBluetoothGetDeviceId   0x167f0                 0xc            0x12  (18)
.text.USBHostBluetoothReadBulk   0x167fc                 0xc            0x12  (18)
.text.USBHostBluetoothReadInt   0x16808                 0xc            0x12  (18)
.text.USBHostBluetoothWriteBulk   0x16814                 0xc            0x12  (18)
.text.USBHostBluetoothWriteControl   0x16820                 0xc            0x12  (18)
.text.hexdump              0x1682c                 0xc            0x12  (18)
.text.hci_drop_link_key_for_bd_addr   0x16838                 0xc            0x12  (18)
.text.rfcomm_init          0x16844                 0xc            0x12  (18)
.text.sdp_init             0x16850                 0xc            0x12  (18)
.text.linked_list_empty    0x1685c                 0xc            0x12  (18)
.text.memory_pool_get      0x16868                 0xc            0x12  (18)
.text.AccessoryOpenChannel   0x16874                 0xa             0xf  (15)
.text.AccessoryCloseChannel   0x1687e                 0xa             0xf  (15)
.text.BTAccepting          0x16888                 0xa             0xf  (15)
.text.BTWrite              0x16892                 0xa             0xf  (15)
.text.USBHostDeviceSpecificClientDriver   0x1689c                 0xa             0xf  (15)
.text.bt_store_16          0x168a6                 0xa             0xf  (15)
.text.net_store_16         0x168b0                 0xa             0xf  (15)
.text.crc8_calc            0x168ba                 0xa             0xf  (15)
.text.de_create_sequence   0x168c4                 0xa             0xf  (15)
.text.AccessoryWrite       0x168ce                 0x8             0xc  (12)
.text.ADBBufferRef         0x168d6                 0x8             0xc  (12)
.text.ADBPacketReset       0x168de                 0x8             0xc  (12)
.text.rfcomm_register_service_internal   0x168e6                 0x8             0xc  (12)
.text.rfcomm_register_service_with_initial_credits_internal   0x168ee                 0x8             0xc  (12)
.text.rfcomm_create_channel_internal   0x168f6                 0x8             0xc  (12)
.text.rfcomm_create_channel_with_initial_credits_internal   0x168fe                 0x8             0xc  (12)
.text.btstack_memory_hci_connection_free   0x16906                 0x8             0xc  (12)
.text.btstack_memory_l2cap_service_free   0x1690e                 0x8             0xc  (12)
.text.btstack_memory_l2cap_channel_free   0x16916                 0x8             0xc  (12)
.text.btstack_memory_rfcomm_multiplexer_free   0x1691e                 0x8             0xc  (12)
.text.btstack_memory_rfcomm_service_free   0x16926                 0x8             0xc  (12)
.text.btstack_memory_rfcomm_channel_free   0x1692e                 0x8             0xc  (12)
.text.btstack_memory_db_mem_device_link_key_free   0x16936                 0x8             0xc  (12)
.text.l2cap_get_outgoing_buffer   0x1693e                 0x8             0xc  (12)
.text.l2cap_max_mtu        0x16946                 0x8             0xc  (12)
.text.sdp_register_packet_handler   0x1694e                 0x8             0xc  (12)
.text.l2cap_next_local_cid   0x16956                 0x8             0xc  (12)
.text.ConnectionOpenChannelAccessory   0x1695e                 0x6             0x9  (9)
.text.AccessoryShutdown    0x16964                 0x6             0x9  (9)
.text.ADBAttached          0x1696a                 0x6             0x9  (9)
.text.ADBPacketRecv        0x16970                 0x6             0x9  (9)
.text.btstack_memory_hci_connection_get   0x16976                 0x6             0x9  (9)
.text.btstack_memory_l2cap_service_get   0x1697c                 0x6             0x9  (9)
.text.btstack_memory_l2cap_channel_get   0x16982                 0x6             0x9  (9)
.text.btstack_memory_rfcomm_multiplexer_get   0x16988                 0x6             0x9  (9)
.text.btstack_memory_rfcomm_service_get   0x1698e                 0x6             0x9  (9)
.text.btstack_memory_rfcomm_channel_get   0x16994                 0x6             0x9  (9)
.text.btstack_memory_db_mem_device_link_key_get   0x1699a                 0x6             0x9  (9)
.text.l2cap_block_new_credits   0x169a0                 0x6             0x9  (9)
.text.de_get_size_type     0x169a6                 0x6             0x9  (9)
.text.de_get_element_type   0x169ac                 0x6             0x9  (9)
.text.de_store_descriptor   0x169b2                 0x6             0x9  (9)
.text.linked_item_set_user   0x169b8                 0x6             0x9  (9)
.text.hci_dump_log         0x169be                 0x6             0x9  (9)
.text.memory_pool_free     0x169c4                 0x6             0x9  (9)
.text.ConnectionOpenChannelBtServer   0x169ca                 0x4             0x6  (6)
.text.BTSetCallback        0x169ce                 0x4             0x6  (6)
.text.BTCanWrite           0x169d2                 0x4             0x6  (6)
.text.BTClose              0x169d6                 0x4             0x6  (6)
.text.USBHostGetDeviceInfo   0x169da                 0x4             0x6  (6)
.text.hci_usable_acl_packet_types   0x169de                 0x4             0x6  (6)
.text.hci_get_outgoing_acl_packet_buffer   0x169e2                 0x4             0x6  (6)
.text.hci_max_acl_data_packet_length   0x169e6                 0x4             0x6  (6)
.text.hci_register_packet_handler   0x169ea                 0x4             0x6  (6)
.text.rfcomm_register_packet_handler   0x169ee                 0x4             0x6  (6)
.text.usb_register_packet_handler   0x169f2                 0x4             0x6  (6)
.text.usb_get_transport_name   0x169f6                 0x4             0x6  (6)
.text.l2cap_register_packet_handler   0x169fa                 0x4             0x6  (6)
.text.linked_item_get_user   0x169fe                 0x4             0x6  (6)
.text.ConnectionResetUSB   0x16a02                 0x2             0x3  (3)
.text.ConnectionOpenChannelAdb   0x16a04                 0x2             0x3  (3)
.text.DummyCallback        0x16a06                 0x4             0x6  (6)
.text.BTShutdown           0x16a0a                 0x2             0x3  (3)
.text.printUUID            0x16a0c                 0x2             0x3  (3)
.text.print_bd_addr        0x16a0e                 0x2             0x3  (3)
.text.hci_connection_timeout_handler   0x16a10                 0x2             0x3  (3)
.text.dummy_handler        0x16a12                 0x2             0x3  (3)
.text.btstack_memory_db_mem_device_name_get   0x16a14                 0x2             0x3  (3)
.text.btstack_memory_db_mem_device_name_free   0x16a16                 0x2             0x3  (3)
.text.btstack_memory_db_mem_service_get   0x16a18                 0x2             0x3  (3)
.text.btstack_memory_db_mem_service_free   0x16a1a                 0x2             0x3  (3)
.text.usb_open             0x16a1c                 0x2             0x3  (3)
.text.usb_close            0x16a1e                 0x2             0x3  (3)
.text.db_open              0x16a20                 0x2             0x3  (3)
.text.db_close             0x16a22                 0x2             0x3  (3)
.text.null_packet_handler   0x16a24                 0x2             0x3  (3)
.text.sdp_add_attribute    0x16a26                 0x2             0x3  (3)
.text.hci_dump_open        0x16a28                 0x2             0x3  (3)
.text.hci_dump_packet      0x16a2a                 0x2             0x3  (3)
.text.hci_dump_close       0x16a2c                 0x2             0x3  (3)

                     Total program memory used (bytes):        0x1a5ad  (107949) 47%


Data Memory  [Origin = 0x800, Length = 0x17800]

section                    address      alignment gaps    total length  (dec)
-------                    -------      --------------    -------------------
.nbss                        0x800                   0          0x139e  (5022)
.ndata                      0x1b9e                   0            0xfe  (254)
.nbss                       0x1c9c                   0            0x4c  (76)
.ndata                      0x1ce8                   0            0x38  (56)
.nbss                       0x1d20                   0            0x38  (56)
.ndata                      0x1d58                   0            0x68  (104)
.nbss                       0x1dc0                   0            0x24  (36)
.ndata                      0x1de4                   0            0x12  (18)
.nbss                       0x1df6                   0             0x8  (8)
.bss                        0x1dfe                   0           0x122  (290)
.data                       0x1f20                   0            0xd8  (216)
.bss                        0x1ff8                   0             0x6  (6)
reserved_bootloader         0x1ffe                 0x2             0x2  (2)
.bss                        0x2000                   0          0x4e96  (20118)
.data                       0x6e96                   0             0x2  (2)
_03851e7052b53dc7           0x6e98                   0           0x200  (512)
_03851d2052b53dc7           0x7098                   0           0x200  (512)
.bss                        0x7298                   0           0x104  (260)
.dconst                     0x739c                   0            0x2a  (42)
.data                       0x73c6                   0            0x26  (38)
.bss                        0x73ec                   0            0x40  (64)
.data                       0x742c                   0            0x1a  (26)
.bss                        0x7446                   0            0x28  (40)
.bss                        0x746e                   0            0xce  (206)
_00d85a8052b53dc6           0x753c                   0            0x80  (128)
.bss                        0x75bc                   0            0x3c  (60)
.bss                        0x75f8                   0             0x8  (8)
_03870230526da3c6           0x7600                   0            0x10  (16)
.bss                        0x7610                   0            0x2c  (44)
.dconst                     0x763c                   0            0x20  (32)
.bss                        0x765c                   0            0x1a  (26)
.data                       0x7676                   0            0x26  (38)
.bss                        0x769c                   0            0x10  (16)
.data                       0x76ac                   0             0xc  (12)
.bss                        0x76b8                   0             0xa  (10)
.dconst                     0x76c2                   0             0x6  (6)
.bss                        0x76c8                   0             0x6  (6)
.data                       0x76ce                   0             0xc  (12)
.bss                        0x76da                   0             0x2  (2)
.data                       0x76dc                   0             0x2  (2)
.bss                        0x76de                   0             0x2  (2)
.data                       0x76e0                   0             0x2  (2)
.heap                       0x76e2                   0           0x600  (1536)

                        Total data memory used (bytes):         0x74e2  (29922) 31%


Dynamic Memory Usage

region                     address                      maximum length  (dec)
------                     -------                      ---------------------
heap                        0x76e2                               0x600  (1536)
stack                       0x7ce2                               0x31e  (798)

                        Maximum dynamic memory (bytes):          0x91e  (2334)


External Symbols in Data Memory (by address):

                    0x16be                  _i2c_states
                    0x1b9e                  _pin_to_rpor
                    0x1c00                  _CNBACKUPG
                    0x1c02                  _CNBACKUPF
                    0x1c04                  _CNBACKUPE
                    0x1c06                  _CNBACKUPD
                    0x1c08                  _CNBACKUPC
                    0x1c0a                  _CNBACKUPB
                    0x1c0c                  _CNFORCEG
                    0x1c0e                  _CNFORCEF
                    0x1c10                  _CNFORCEE
                    0x1c12                  _CNFORCED
                    0x1c14                  _CNFORCEC
                    0x1c16                  _CNFORCEB
                    0x1c18                  _CNENG
                    0x1c1a                  _CNENF
                    0x1c1c                  _CNENE
                    0x1c1e                  _CNEND
                    0x1c20                  _CNENC
                    0x1c22                  _CNENB
                    0x1c24                  _accessoryDescs
                    0x1d58                  _uart_reg
                    0x1d90                  _i2c_reg
                    0x1da8                  _spi_reg
                    0x1fc0                  _usbTPL
                    0x1fe0                  _usbClientDrvTable
                    0x4640                  _defaultArray
                    0x464a                  _tempDirectoryString
                    0x4854                  _utf16Filename
                    0x4856                  _fileNameLength
                    0x4858                  _asciiFilename
                    0x485a                  _gDiskData
                    0x487e                  _cwd
                    0x48ba                  _gFileTemp
                    0x48f6                  _tempCWDobj
                    0x4932                  _dirCleared
                    0x4934                  _TempClusterCalc
                    0x4938                  _FSerrno
                    0x493a                  _FatRootDirClusterValue
                    0x493e                  _gTimeWrtDate
                    0x4940                  _gTimeWrtTime
                    0x4942                  _gTimeAccDate
                    0x4944                  _gTimeCrtDate
                    0x4946                  _gTimeCrtTime
                    0x4948                  _gTimeCrtMS
                    0x494a                  _fileFoundString
                    0x4b54                  _recordSearchLength
                    0x4b56                  _recordFoundName
                    0x4d58                  _recordSearchName
                    0x4f5a                  _lfnData
                    0x535e                  _gFileSlotOpen
                    0x5360                  _gFileArray
                    0x5fd8                  _frame
                    0x6e98                  _gFATBuffer
                    0x7098                  _gDataBuffer
                    0x73c6                  __Files
                    0x73c8                  __iob
                    0x73ec                  _gc_BluetoothDevData
                    0x742c                  _source_cid
                    0x742e                  _sig_seq_nr
                    0x75dc                  _gSDMode
                    0x75de                  _gMediaSectorSize
                    0x75e0                  _MDD_SDSPI_finalLBA
                    0x7614                  _usbOverrideHostState
                    0x765c                  _gc_DevData
                    0x7676                  _twoByteMode
                    0x7678                  _utfModeFileName
                    0x767a                  _cwdptr
                    0x767c                  _recache
                    0x767d                  _gBufferZeroed
                    0x767e                  _nextClusterIsLast
                    0x767f                  _gNeedDataWrite
                    0x7680                  _gLastDataSectorRead
                    0x7684                  _gBufferOwner
                    0x7686                  _gNeedFATWrite
                    0x7688                  _gLastFATSectorRead
                    0x769c                  __allocx
                    0x76a0                  __alloct
                    0x76a2                  __allocp
                    0x76a4                  __allocs
                    0x76c8                  __sobuf
                    0x76ca                  __sibuf
                    0x76cc                  __outdone
                    0x76ce                  _pDeviceDescriptor
                    0x76d0                  _pCurrentConfigurationDescriptor
                    0x76d2                  _db_mem_names
                    0x76d4                  _db_mem_link_keys
                    0x76de                  ___curbrk
                    0x76e0                  ___C30_UART

External Symbols in Data Memory (by name):

                    0x1c0a                  _CNBACKUPB
                    0x1c08                  _CNBACKUPC
                    0x1c06                  _CNBACKUPD
                    0x1c04                  _CNBACKUPE
                    0x1c02                  _CNBACKUPF
                    0x1c00                  _CNBACKUPG
                    0x1c22                  _CNENB
                    0x1c20                  _CNENC
                    0x1c1e                  _CNEND
                    0x1c1c                  _CNENE
                    0x1c1a                  _CNENF
                    0x1c18                  _CNENG
                    0x1c16                  _CNFORCEB
                    0x1c14                  _CNFORCEC
                    0x1c12                  _CNFORCED
                    0x1c10                  _CNFORCEE
                    0x1c0e                  _CNFORCEF
                    0x1c0c                  _CNFORCEG
                    0x4938                  _FSerrno
                    0x493a                  _FatRootDirClusterValue
                    0x75e0                  _MDD_SDSPI_finalLBA
                    0x4934                  _TempClusterCalc
                    0x73c6                  __Files
                    0x76e0                  ___C30_UART
                    0x76de                  ___curbrk
                    0x76a2                  __allocp
                    0x76a4                  __allocs
                    0x76a0                  __alloct
                    0x769c                  __allocx
                    0x73c8                  __iob
                    0x76cc                  __outdone
                    0x76ca                  __sibuf
                    0x76c8                  __sobuf
                    0x1c24                  _accessoryDescs
                    0x4858                  _asciiFilename
                    0x487e                  _cwd
                    0x767a                  _cwdptr
                    0x76d4                  _db_mem_link_keys
                    0x76d2                  _db_mem_names
                    0x4640                  _defaultArray
                    0x4932                  _dirCleared
                    0x494a                  _fileFoundString
                    0x4856                  _fileNameLength
                    0x5fd8                  _frame
                    0x7684                  _gBufferOwner
                    0x767d                  _gBufferZeroed
                    0x7098                  _gDataBuffer
                    0x485a                  _gDiskData
                    0x6e98                  _gFATBuffer
                    0x5360                  _gFileArray
                    0x535e                  _gFileSlotOpen
                    0x48ba                  _gFileTemp
                    0x7680                  _gLastDataSectorRead
                    0x7688                  _gLastFATSectorRead
                    0x75de                  _gMediaSectorSize
                    0x767f                  _gNeedDataWrite
                    0x7686                  _gNeedFATWrite
                    0x75dc                  _gSDMode
                    0x4942                  _gTimeAccDate
                    0x4944                  _gTimeCrtDate
                    0x4948                  _gTimeCrtMS
                    0x4946                  _gTimeCrtTime
                    0x493e                  _gTimeWrtDate
                    0x4940                  _gTimeWrtTime
                    0x73ec                  _gc_BluetoothDevData
                    0x765c                  _gc_DevData
                    0x1d90                  _i2c_reg
                    0x16be                  _i2c_states
                    0x4f5a                  _lfnData
                    0x767e                  _nextClusterIsLast
                    0x76d0                  _pCurrentConfigurationDescriptor
                    0x76ce                  _pDeviceDescriptor
                    0x1b9e                  _pin_to_rpor
                    0x767c                  _recache
                    0x4b56                  _recordFoundName
                    0x4b54                  _recordSearchLength
                    0x4d58                  _recordSearchName
                    0x742e                  _sig_seq_nr
                    0x742c                  _source_cid
                    0x1da8                  _spi_reg
                    0x48f6                  _tempCWDobj
                    0x464a                  _tempDirectoryString
                    0x7676                  _twoByteMode
                    0x1d58                  _uart_reg
                    0x1fe0                  _usbClientDrvTable
                    0x7614                  _usbOverrideHostState
                    0x1fc0                  _usbTPL
                    0x4854                  _utf16Filename
                    0x7678                  _utfModeFileName

External Symbols in Program Memory (by address):

                  0x005004                  __DEFAULT_VECTOR
                  0x005110                  __resetPRI
                  0x005132                  __psv_init
                  0x00513e                  __data_init_extended
                  0x00513e                  __data_init
                  0x005390                  __memcpy_helper
                  0x0053c6                  ___mulp32eds3
                  0x0053c6                  ___mulp32peds3
                  0x0053c6                  ___mulsi3
                  0x0053d2                  _toupper
                  0x0053e0                  _tolower
                  0x0054a6                  ___udivsi3
                  0x0054c6                  ___umodsi3
                  0x0054f2                  ___udivmoddi3
                  0x0055c0                  ___udivdi3
                  0x0055ce                  ___umoddi3
                  0x0055d6                  ___divdi3
                  0x005610                  ___moddi3
                  0x0056e2                  _memcpy
                  0x0056f0                  _memcmp
                  0x005724                  _memset
                  0x005732                  __sprintf_cdnopuxX
                  0x005760                  _strncpy
                  0x00578e                  _strlen
                  0x00579a                  _strcpy
                  0x0057aa                  _malloc
                  0x0058ce                  _free
                  0x0058da                  _realloc
                  0x005934                  _strncmp
                  0x005956                  __printf_cdnopsuxX
                  0x005964                  _putchar
                  0x005968                  __vfprintf_cdnopuxX
                  0x005968                  __vfprintf_cdnopsuxX
                  0x005fe6                  __USB1Interrupt
                  0x0062ee                  __DefaultInterrupt
                  0x0062f2                  _pin_to_rpin
                  0x006324                  _cn_info
                  0x00650e                  _port_info
                  0x006984                  _rfcomm_persistent_channel_for_service
                  0x00698c                  _rfcomm_decline_connection
                  0x006992                  _rfcomm_accept_connection
                  0x006996                  _rfcomm_unregister_service
                  0x00699e                  _rfcomm_register_service_with_initial_credits
                  0x0069a6                  _rfcomm_register_service
                  0x0069aa                  _rfcomm_disconnect
                  0x0069ae                  _rfcomm_grants_credits
                  0x0069b8                  _rfcomm_create_channel_with_initial_credits
                  0x0069c0                  _rfcomm_create_channel
                  0x0069c6                  _sdp_unregister_service_record
                  0x0069cc                  _sdp_register_service_record
                  0x0069d0                  _l2cap_decline_connection
                  0x0069d4                  _l2cap_accept_connection
                  0x0069d8                  _l2cap_unregister_service
                  0x0069e0                  _l2cap_register_service
                  0x0069e4                  _l2cap_disconnect
                  0x0069ec                  _l2cap_create_channel_mtu
                  0x0069f4                  _l2cap_create_channel
                  0x0069fa                  _btstack_set_bluetooth_enabled
                  0x0069fe                  _btstack_set_discoverable
                  0x006a02                  _btstack_set_system_bluetooth_enabled
                  0x006a08                  _btstack_get_system_bluetooth_enabled
                  0x006a0c                  _btstack_get_version
                  0x006a10                  _btstack_set_acl_capture_mode
                  0x006a14                  _btstack_set_power_mode
                  0x006a18                  _btstack_get_state
                  0x006a1c                  _hci_read_bd_addr
                  0x006a20                  _hci_read_buffer_size
                  0x006a24                  _hci_read_local_supported_features
                  0x006a2c                  _hci_write_le_host_supported
                  0x006a30                  _hci_read_le_host_supported
                  0x006a34                  _hci_write_simple_pairing_mode
                  0x006a3c                  _hci_write_extended_inquiry_response
                  0x006a40                  _hci_write_inquiry_mode
                  0x006a48                  _hci_write_link_supervision_timeout
                  0x006a4e                  _hci_read_link_supervision_timeout
                  0x006a58                  _hci_host_buffer_size
                  0x006a5c                  _hci_write_num_broadcast_retransmissions
                  0x006a60                  _hci_read_num_broadcast_retransmissions
                  0x006a66                  _hci_write_class_of_device
                  0x006a6a                  _hci_write_authentication_enable
                  0x006a6e                  _hci_write_scan_enable
                  0x006a72                  _hci_write_page_timeout
                  0x006a76                  _hci_write_local_name
                  0x006a7a                  _hci_delete_stored_link_key
                  0x006a7e                  _hci_reset
                  0x006a86                  _hci_set_event_mask
                  0x006a8a                  _hci_write_link_policy_settings
                  0x006a8e                  _hci_read_link_policy_settings
                  0x006a92                  _hci_switch_role_command
                  0x006a96                  _hci_role_discovery
                  0x006aa2                  _hci_qos_setup
                  0x006aac                  _hci_sniff_mode
                  0x006ab2                  _hci_remote_name_request_cancel
                  0x006abc                  _hci_remote_name_request
                  0x006ac0                  _hci_change_connection_link_key
                  0x006ac8                  _hci_set_connection_encryption
                  0x006acc                  _hci_authentication_requested
                  0x006ad0                  _hci_pin_code_request_negative_reply
                  0x006ad8                  _hci_pin_code_request_reply
                  0x006adc                  _hci_link_key_request_negative_reply
                  0x006ae4                  _hci_link_key_request_reply
                  0x006ae8                  _hci_reject_connection_request
                  0x006aec                  _hci_accept_connection_request
                  0x006af0                  _hci_create_connection_cancel
                  0x006af4                  _hci_disconnect
                  0x006b00                  _hci_create_connection
                  0x006b04                  _hci_inquiry_cancel
                  0x006b0c                  _hci_inquiry
                  0x006c2e                  _sdp_bluetooth_base_uuid
                  0x006c68                  _type_names
                  0x006ccc                  _sdmmc_cmdtable
                  0x006d44                  _outgoing_arg_size
                  0x006d65                  _incoming_arg_size
                  0x006e46                  _remote_device_db_memory
                  0x006e58                  _CharacterArray
                  0x006e8e                  _Cluster2Sector
                  0x006ee2                  _ReadByte
                  0x006ee8                  _ReadWord
                  0x006ef4                  _ReadDWord
                  0x006f18                  _GetFullClusterNumber
                  0x006f2c                  _flushData
                  0x006f60                  _FSCreateMBR
                  0x0070b6                  _Write_File_Entry
                  0x00713a                  _WriteFAT
                  0x007392                  _ReadFAT
                  0x0075b2                  _Cache_File_Entry
                  0x00775c                  _Fill_LFN_Object
                  0x0077a8                  _FILEget_next_cluster
                  0x007844                  _FAT_erase_cluster_chain
                  0x0078f2                  _LoadDirAttrib
                  0x007934                  _CacheTime
                  0x0079cc                  _PopulateEntries
                  0x007a5c                  _FileObjectCopy
                  0x007a6a                  _FATfindEmptyCluster
                  0x007b1e                  _EraseCluster
                  0x007b92                  _FILECreateHeadCluster
                  0x007bee                  _CreateFirstCluster
                  0x007c2a                  _FILEallocate_new_cluster
                  0x007c8e                  _FindEmptyEntries
                  0x007d4e                  _FSfclose
                  0x007e0a                  _FSfseek
                  0x007f64                  _FSftell
                  0x007f6e                  _FSrewind
                  0x007f94                  _FSerror
                  0x007f9a                  _FSattrib
                  0x008004                  _FSfwrite
                  0x008208                  _FSfeof
                  0x008222                  _FSfread
                  0x0083ac                  _ValidateChars
                  0x00857c                  _FormatFileName
                  0x00877c                  _FormatDirName
                  0x00899e                  _writeDotEntries
                  0x008a84                  _LoadMBR
                  0x008b9a                  _LoadBootSector
                  0x008eba                  _DISKmount
                  0x008f1e                  _FSInit
                  0x008f9e                  _FSformat
                  0x0097ac                  _Fill_File_Object
                  0x009862                  _FILEopen
                  0x009924                  _FILEfind
                  0x00a0a4                  _FindNext
                  0x00a1f6                  _FindFirst
                  0x00a382                  _wFindFirst
                  0x00a38e                  _Alias_LFN_Object
                  0x00a642                  _CreateFileEntry
                  0x00a800                  _FILEerase
                  0x00a8de                  _eraseDir
                  0x00a944                  _FSremove
                  0x00aa1e                  _wFSremove
                  0x00aa2a                  _FSfopen
                  0x00ac86                  _wFSfopen
                  0x00ac92                  _FSrename
                  0x00ad66                  _wFSrename
                  0x00ad72                  _chdirhelper
                  0x00aff2                  _wFSchdir
                  0x00b004                  _FSchdir
                  0x00b00c                  _GetPreviousEntry
                  0x00b21a                  _FSgetcwd
                  0x00b5fa                  _wFSgetcwd
                  0x00b606                  _CreateDIR
                  0x00b6c6                  _mkdirhelper
                  0x00b9a8                  _wFSmkdir
                  0x00b9ba                  _FSmkdir
                  0x00b9c2                  _rmdirhelper
                  0x00bf6c                  _wFSrmdir
                  0x00bf82                  _FSrmdir
                  0x00bf8c                  _USBHostTasks
                  0x00c9a8                  _AppProtocolSendMessageWithVarArgSplit
                  0x00ca0a                  _AppProtocolTasks
                  0x00ca94                  _AppProtocolSendMessage
                  0x00cad2                  _AppProtocolSendMessageWithVarArg
                  0x00cb22                  _AppProtocolInit
                  0x00cbbe                  _AppProtocolHandleIncoming
                  0x00d29c                  _MDD_SDSPI_MediaDetect
                  0x00d2a4                  _MDD_SDSPI_ReadSectorSize
                  0x00d2a8                  _MDD_SDSPI_ReadCapacity
                  0x00d2ae                  _MDD_SDSPI_InitIO
                  0x00d2b4                  _CloseSPIM
                  0x00d2b8                  _WriteSPIM
                  0x00d2c6                  _MDD_SDSPI_ReadMedia
                  0x00d2d6                  _SendMMCCmd
                  0x00d39e                  _MDD_SDSPI_AsyncReadTasks
                  0x00d516                  _MDD_SDSPI_SectorRead
                  0x00d544                  _MDD_SDSPI_AsyncWriteTasks
                  0x00d70e                  _MDD_SDSPI_SectorWrite
                  0x00d742                  _MDD_SDSPI_WriteProtectState
                  0x00d744                  _Delayms
                  0x00d760                  _OpenSPIM
                  0x00d78a                  _InitSPISlowMode
                  0x00d7ae                  _MDD_SDSPI_MediaInitialize
                  0x00da44                  _MDD_SDSPI_ShutdownMedia
                  0x00da4a                  build/IOIO0023/production/spi.o:__Set_SPI1IF
                  0x00da5c                  build/IOIO0023/production/spi.o:__Set_SPI2IF
                  0x00da6e                  build/IOIO0023/production/spi.o:__Set_SPI3IF
                  0x00da80                  build/IOIO0023/production/spi.o:__Set_SPI1IE
                  0x00da92                  build/IOIO0023/production/spi.o:__Set_SPI2IE
                  0x00daa4                  build/IOIO0023/production/spi.o:__Set_SPI3IE
                  0x00dab6                  build/IOIO0023/production/spi.o:__Set_SPI1IP
                  0x00dac8                  build/IOIO0023/production/spi.o:__Set_SPI2IP
                  0x00dadc                  build/IOIO0023/production/spi.o:__Set_SPI3IP
                  0x00dc74                  __SPI1Interrupt
                  0x00dc96                  __SPI2Interrupt
                  0x00dcb8                  __SPI3Interrupt
                  0x00dcda                  _SPITasks
                  0x00deb0                  _SPITransmit
                  0x00e040                  _SPIConfigMaster
                  0x00e044                  _SPIInit
                  0x00e06a                  build/IOIO0023/production/uart.o:__Set_U1RXIE
                  0x00e07c                  build/IOIO0023/production/uart.o:__Set_U2RXIE
                  0x00e08e                  build/IOIO0023/production/uart.o:__Set_U3RXIE
                  0x00e0a0                  build/IOIO0023/production/uart.o:__Set_U4RXIE
                  0x00e0b0                  build/IOIO0023/production/uart.o:__Set_U1RXIF
                  0x00e0c2                  build/IOIO0023/production/uart.o:__Set_U2RXIF
                  0x00e0d4                  build/IOIO0023/production/uart.o:__Set_U3RXIF
                  0x00e0e6                  build/IOIO0023/production/uart.o:__Set_U4RXIF
                  0x00e0f6                  build/IOIO0023/production/uart.o:__Set_U1RXIP
                  0x00e10a                  build/IOIO0023/production/uart.o:__Set_U2RXIP
                  0x00e11c                  build/IOIO0023/production/uart.o:__Set_U3RXIP
                  0x00e12e                  build/IOIO0023/production/uart.o:__Set_U4RXIP
                  0x00e140                  build/IOIO0023/production/uart.o:__Set_U1TXIE
                  0x00e152                  build/IOIO0023/production/uart.o:__Set_U2TXIE
                  0x00e162                  build/IOIO0023/production/uart.o:__Set_U3TXIE
                  0x00e174                  build/IOIO0023/production/uart.o:__Set_U4TXIE
                  0x00e186                  build/IOIO0023/production/uart.o:__Set_U1TXIF
                  0x00e198                  build/IOIO0023/production/uart.o:__Set_U2TXIF
                  0x00e1a8                  build/IOIO0023/production/uart.o:__Set_U3TXIF
                  0x00e1ba                  build/IOIO0023/production/uart.o:__Set_U4TXIF
                  0x00e1cc                  build/IOIO0023/production/uart.o:__Set_U1TXIP
                  0x00e1de                  build/IOIO0023/production/uart.o:__Set_U2TXIP
                  0x00e1f2                  build/IOIO0023/production/uart.o:__Set_U3TXIP
                  0x00e206                  build/IOIO0023/production/uart.o:__Set_U4TXIP
                  0x00e21a                  __U4RXInterrupt
                  0x00e25c                  _UARTTasks
                  0x00e336                  _UARTTransmit
                  0x00e3da                  __U4TXInterrupt
                  0x00e3fc                  __U3TXInterrupt
                  0x00e41e                  __U2TXInterrupt
                  0x00e440                  __U1TXInterrupt
                  0x00e584                  _UARTConfig
                  0x00e588                  _UARTInit
                  0x00e5b8                  __U1RXInterrupt
                  0x00e5fa                  __U2RXInterrupt
                  0x00e63c                  __U3RXInterrupt
                  0x00e67e                  build/IOIO0023/production/incap.o:__Set_IC1IF
                  0x00e690                  build/IOIO0023/production/incap.o:__Set_IC2IF
                  0x00e6a2                  build/IOIO0023/production/incap.o:__Set_IC3IF
                  0x00e6b4                  build/IOIO0023/production/incap.o:__Set_IC4IF
                  0x00e6c6                  build/IOIO0023/production/incap.o:__Set_IC5IF
                  0x00e6d6                  build/IOIO0023/production/incap.o:__Set_IC6IF
                  0x00e6e6                  build/IOIO0023/production/incap.o:__Set_IC7IF
                  0x00e6f8                  build/IOIO0023/production/incap.o:__Set_IC8IF
                  0x00e708                  build/IOIO0023/production/incap.o:__Set_IC9IF
                  0x00e71a                  build/IOIO0023/production/incap.o:__Set_IC1IE
                  0x00e72c                  build/IOIO0023/production/incap.o:__Set_IC2IE
                  0x00e73e                  build/IOIO0023/production/incap.o:__Set_IC3IE
                  0x00e750                  build/IOIO0023/production/incap.o:__Set_IC4IE
                  0x00e762                  build/IOIO0023/production/incap.o:__Set_IC5IE
                  0x00e772                  build/IOIO0023/production/incap.o:__Set_IC6IE
                  0x00e782                  build/IOIO0023/production/incap.o:__Set_IC7IE
                  0x00e794                  build/IOIO0023/production/incap.o:__Set_IC8IE
                  0x00e7a4                  build/IOIO0023/production/incap.o:__Set_IC9IE
                  0x00e7b6                  build/IOIO0023/production/incap.o:__Set_IC1IP
                  0x00e7ca                  build/IOIO0023/production/incap.o:__Set_IC2IP
                  0x00e7de                  build/IOIO0023/production/incap.o:__Set_IC3IP
                  0x00e7f2                  build/IOIO0023/production/incap.o:__Set_IC4IP
                  0x00e804                  build/IOIO0023/production/incap.o:__Set_IC5IP
                  0x00e818                  build/IOIO0023/production/incap.o:__Set_IC6IP
                  0x00e82a                  build/IOIO0023/production/incap.o:__Set_IC7IP
                  0x00e83c                  build/IOIO0023/production/incap.o:__Set_IC8IP
                  0x00e850                  build/IOIO0023/production/incap.o:__Set_IC9IP
                  0x00e864                  __T5Interrupt
                  0x00e9ae                  __IC9Interrupt
                  0x00e9d0                  __IC8Interrupt
                  0x00e9f2                  __IC7Interrupt
                  0x00ea14                  __IC6Interrupt
                  0x00ea36                  __IC5Interrupt
                  0x00ea58                  __IC4Interrupt
                  0x00ea7a                  __IC3Interrupt
                  0x00ea9c                  __IC2Interrupt
                  0x00eabe                  __IC1Interrupt
                  0x00ec12                  _InCapConfig
                  0x00ec16                  _InCapInit
                  0x00ec48                  build/IOIO0023/production/i2c.o:__Set_MI2C1IF
                  0x00ec5a                  build/IOIO0023/production/i2c.o:__Set_MI2C2IF
                  0x00ec6c                  build/IOIO0023/production/i2c.o:__Set_MI2C3IF
                  0x00ec7e                  build/IOIO0023/production/i2c.o:__Set_MI2C1IE
                  0x00ec90                  build/IOIO0023/production/i2c.o:__Set_MI2C2IE
                  0x00eca2                  build/IOIO0023/production/i2c.o:__Set_MI2C3IE
                  0x00ecb4                  build/IOIO0023/production/i2c.o:__Set_MI2C1IP
                  0x00ecc8                  build/IOIO0023/production/i2c.o:__Set_MI2C2IP
                  0x00ecda                  build/IOIO0023/production/i2c.o:__Set_MI2C3IP
                  0x00ee82                  __MI2C1Interrupt
                  0x00eea4                  __MI2C2Interrupt
                  0x00eec6                  __MI2C3Interrupt
                  0x00eee8                  _I2CTasks
                  0x00f006                  _I2CWriteRead
                  0x00f162                  _I2CConfigMaster
                  0x00f166                  _I2CInit
                  0x00f186                  _SetPinDigitalIn
                  0x00f1ec                  _SetPinDigitalOut
                  0x00f22c                  _SetPinPwm
                  0x00f242                  _SetPinUart
                  0x00f2da                  _SetPinInCap
                  0x00f3f0                  _SetPinAnalogIn
                  0x00f420                  _SetPinSpi
                  0x00f4b6                  _HardReset
                  0x00f4ba                  _CheckInterface
                  0x00f520                  _SoftReset
                  0x00fcfe                  _packet_handler
                  0x010068                  _rfcomm_packet_handler
                  0x010374                  _ICSPExit
                  0x01038a                  _ICSPConfigure
                  0x0103e2                  _ICSPTasks
                  0x010446                  _ICSPRegout
                  0x0104d8                  _ICSPEnter
                  0x0105c0                  _ICSPSix
                  0x010656                  _ADBTasks
                  0x0108e8                  _UART2GetBaudError
                  0x0108ea                  _UART2GetChar
                  0x0108f8                  _UART2Init
                  0x01090c                  _UART2IsPressed
                  0x010914                  _UART2PutChar
                  0x010922                  _UART2Char2Hex
                  0x010962                  _UART2Hex2Char
                  0x010974                  _UART2ClrError
                  0x01097e                  _UART2PrintString
                  0x01099c                  _UART2PutDec
                  0x010a22                  _UART2PutHex
                  0x010a4a                  _UART2PutHexWord
                  0x010a94                  _UART2PutHexDWord
                  0x010b40                  __USB_ParseConfigurationDescriptor
                  0x010d98                  _SetChangeNotify
                  0x010dd8                  _SetDigitalOutLevel
                  0x010e02                  __CNInterrupt
                  0x010fe6                  __T3Interrupt
                  0x01107a                  __CRCInterrupt
                  0x011106                  __ADC1Interrupt
                  0x01111a                  _ADCInit
                  0x011154                  _ADCSetScan
                  0x011228                  _l2cap_run
                  0x01146a                  _RgbLedMatrixEnable
                  0x0114d8                  _RgbLedMatrixFrame
                  0x0114f6                  _RgbLedMatrixFrameSize
                  0x0114fe                  __T4Interrupt
                  0x0116a2                  __USB_FindNextToken
                  0x0118c4                  _hci_run
                  0x011b60                  _PixelInit
                  0x011b62                  _PixelTasks
                  0x011b96                  _PixelFrame
                  0x011bb8                  _PixelPlayFile
                  0x011bec                  _PixelInteractive
                  0x011c4c                  _PixelWriteFile
                  0x011cfa                  _ByteQueueOverflow
                  0x011cfc                  _ByteQueuePullByte
                  0x011d28                  _ByteQueuePeekMax
                  0x011d4e                  _ByteQueuePull
                  0x011d68                  _ByteQueuePeek
                  0x011d86                  _ByteQueuePushByte
                  0x011db6                  _ByteQueuePushBuffer
                  0x011e26                  _ByteQueuePullToBuffer
                  0x011e96                  _sdp_create_spp_service
                  0x012028                  _PinSetTris
                  0x012042                  _PinSetAnsel
                  0x01205c                  _PinSetLat
                  0x012076                  _PinGetPort
                  0x012088                  _PinSetOdc
                  0x0120a2                  _PinSetCnen
                  0x0120ee                  _PinSetCnforce
                  0x012110                  _PinSetCnpu
                  0x01212a                  _PinSetCnpd
                  0x012144                  _PinSetRpor
                  0x012154                  _PinFromPortB
                  0x01215c                  _PinFromPortC
                  0x012166                  _PinFromPortD
                  0x012170                  _PinFromPortE
                  0x01217a                  _PinFromPortF
                  0x012184                  _PinFromPortG
                  0x01218e                  _PinFromAnalogChannel
                  0x012196                  _PinToAnalogChannel
                  0x0121a8                  _PinToRpin
                  0x0121b0                  _l2cap_event_handler
                  0x012330                  _sdp_handle_service_search_attribute_request
                  0x0124ac                  _l2cap_signaling_handler_dispatch
                  0x012626                  adb_file.o:_ADBFileCallback
                  0x012762                  _hci_create_cmd_internal
                  0x012884                  sdp_util.o:_de_traversal_dump_data
                  0x0129a6                  _ADBPacketTasks
                  0x012ac0                  _sdp_handle_service_attribute_request
                  0x012bd8                  _rfcomm_channel_packet_handler
                  0x012cea                  _sdp_handle_service_search_request
                  0x012df0                  bt_app.o:_PacketHandler
                  0x012ef0                  __USB_SetBDT
                  0x012fe4                  _hci_send_cmd_packet
                  0x0130d6                  _hci_power_control
                  0x0131bc                  _USBHostIssueDeviceRequest
                  0x013298                  _l2cap_signaling_handler_channel
                  0x013372                  _AppCallback
                  0x013392                  _main
                  0x013446                  _USBHostBluetoothInit
                  0x013508                  _USBHostBluetoothTasks
                  0x0135ca                  _AccessoryTasks
                  0x013686                  sdp.o:_sdp_packet_handler
                  0x0137e8                  _l2cap_create_signaling_internal
                  0x01388a                  _sdp_register_service_internal
                  0x013926                  _l2cap_acl_handler
                  0x013a56                  _ConnectionTasks
                  0x013ae2                  __USB_FindDeviceLevelClientDriver
                  0x013b6e                  __USB_FindClassDriver
                  0x013c86                  __USB_FindServiceEndpoint
                  0x013d0c                  _rfcomm_create_channel2
                  0x013d8c                  _l2cap_create_channel_internal
                  0x013e08                  _l2cap_send_prepared
                  0x013e80                  _rfcomm_register_service2
                  0x013ef6                  sdp_util.o:_sdp_traversal_filter_attributes
                  0x013fde                  _ADBOpen
                  0x0140ba                  _rfcomm_send_internal
                  0x014126                  _de_add_number
                  0x014192                  _USBHostRead
                  0x0141fc                  _USBHostWrite
                  0x014266                  sdp_util.o:_sdp_traversal_append_attributes
                  0x0142ce                  _USBHostAndroidTasks
                  0x014396                  _de_get_normalized_uuid
                  0x01445c                  _USBHostAndroidInitInterface
                  0x0144bc                  _USBHostTransferIsComplete
                  0x01457a                  __USB_NotifyClients
                  0x0145d6                  _l2cap_register_service_internal
                  0x014632                  _de_get_data_size
                  0x014742                  _USBHostBluetoothCallback
                  0x01479c                  _l2cap_send_prepared_connectionless
                  0x0147f6                  _ADBFileRead
                  0x01484e                  __USB_InitRead
                  0x0148a6                  __USB_InitWrite
                  0x0148fe                  remote_device_db_memory.o:_put_name
                  0x014956                  remote_device_db_memory.o:_persistent_rfcomm_channel
                  0x0149ae                  _de_add_data
                  0x014a06                  __USB_InitControlWrite
                  0x014a5a                  _btstack_memory_init
                  0x014aae                  _BTInit
                  0x014b52                  _ADBFileTasks
                  0x014ba2                  remote_device_db_memory.o:_put_link_key
                  0x014bf2                  __USB_FreeConfigMemory
                  0x014c3e                  _hci_emit_remote_name_cached
                  0x014c8a                  _sdp_get_service_record_handle
                  0x014cd6                  sdp_util.o:_sdp_traversal_attributeID_search
                  0x014e02                  _SetPwmPeriod
                  0x014e22                  _SetPwmDutyCycle
                  0x014e3c                  _PWMInit
                  0x014e4a                  _ConnAccessoryTasks
                  0x014e92                  __USB_InitControlRead
                  0x014eda                  sdp_util.o:_sdp_traversal_set_attribute_for_id
                  0x014f22                  _hci_send_acl_packet
                  0x014f68                  _hci_emit_connection_complete
                  0x014ff0                  _l2cap_signaling_handle_configure_request
                  0x015032                  _ADBPacketSend
                  0x0150b2                  _l2cap_emit_credits
                  0x0150f2                  sdp_util.o:_sdp_traversal_contains_UUID128
                  0x015132                  __USB_SendToken
                  0x015170                  _hci_emit_disconnection_complete
                  0x0151ae                  __USB_ResetDATA0
                  0x0151ea                  _USBHostSetDeviceConfiguration
                  0x015226                  __USB_FreeMemory
                  0x015262                  _hci_init
                  0x01529e                  _rfcomm_close_connection
                  0x0152da                  _l2cap_hand_out_credits
                  0x015316                  _l2cap_send_signaling_packet
                  0x015352                  _l2cap_close_connection
                  0x0153ca                  _USBHostAndroidRead
                  0x015404                  _rfcomm_unregister_service_internal
                  0x01543e                  remote_device_db_memory.o:_get_name
                  0x015478                  remote_device_db_memory.o:_get_link_key
                  0x0154b2                  _l2cap_send_connectionless
                  0x015524                  _rfcomm_accept_connection_internal
                  0x015594                  _de_add_uuid128
                  0x0155cc                  _USBHostAndroidInitDevice
                  0x015602                  _USBHostAndroidWrite
                  0x015638                  _USBHostDeviceStatus
                  0x01566e                  _USBHostInit
                  0x0156a4                  _USBHostShutdown
                  0x015710                  _l2cap_unregister_service_internal
                  0x015746                  _l2cap_send_internal
                  0x01577c                  _ADBPacketRecvStatus
                  0x0157b0                  __USB_CheckCommandAndEnumerationAttempts
                  0x0157e4                  _hci_emit_nr_connections_changed
                  0x015818                  _rfcomm_can_send
                  0x01587e                  __USB_TransferInProgress
                  0x0158b0                  _USBHostSetNAKTimeout
                  0x0158e2                  _bd_addr_to_str
                  0x015946                  _ConnectionCanOpenChannel
                  0x015976                  __USB_FindEndpoint
                  0x0159a6                  _hci_can_send_packet_now
                  0x015a06                  _sdp_create_service_record_handle
                  0x015a36                  _USBHostBluetoothEventHandler
                  0x015a64                  _hci_emit_l2cap_check_timeout
                  0x015ac0                  _sdp_create_error_response
                  0x015aee                  _sdp_traversal_match_pattern
                  0x015b1c                  _ConnectionTypeSupported
                  0x015b74                  _USBHostClearEndpointErrors
                  0x015bf2                  _hci_transport_mchpusb_instance
                  0x015c1c                  _sdp_filter_attributes_in_attributeIDList
                  0x015c46                  _AccessoryCanWrite
                  0x015c6e                  _USBHostVbusEvent
                  0x015c96                  _hci_emit_state
                  0x015cbe                  _hci_authentication_active_for_handle
                  0x015ce6                  _sdp_unregister_service_internal
                  0x015d0e                  _ConnectionSend
                  0x015d5a                  _hci_emit_discoverable_enabled
                  0x015d80                  _hci_emit_system_bluetooth_enabled
                  0x015df2                  _rfcomm_grant_credits
                  0x015e18                  hci_transport_mchpusb.o:_usb_send_packet
                  0x015e3e                  _de_store_descriptor_with_len
                  0x015e64                  sdp_util.o:_sdp_traversal_get_filtered_size
                  0x015e8a                  _ConnectionCanSend
                  0x015f1a                  _ADBFileClose
                  0x015f3c                  _USBHostAndroidEventHandler
                  0x015f5e                  _USBHostTerminateTransfer
                  0x015f80                  _crc8_check
                  0x015fa2                  _hci_emit_hci_open_failed
                  0x016008                  _rfcomm_decline_connection_internal
                  0x01602a                  _hci_transport_mchpusb_tasks
                  0x01604c                  remote_device_db_memory.o:_delete_link_key
                  0x01606e                  remote_device_db_memory.o:_delete_name
                  0x016090                  _l2cap_can_send_packet_now
                  0x0160b2                  _de_pop_sequence
                  0x0160d4                  _ADBChannelReady
                  0x016114                  hci_transport_mchpusb.o:_usb_can_send_packet
                  0x016134                  _l2cap_init
                  0x016174                  _USBHostAndroidRxIsComplete
                  0x016192                  _USBHostResumeDevice
                  0x0161b0                  _USBHostSuspendDevice
                  0x0161ec                  _l2cap_dispatch
                  0x01620a                  _l2cap_decline_connection_internal
                  0x016228                  _sdp_get_record_for_handle
                  0x016246                  _USBHostResetDevice
                  0x016262                  _net_store_32
                  0x01627e                  _crc8
                  0x01629a                  _hci_number_free_acl_slots
                  0x0162b6                  _hci_number_outgoing_packets
                  0x0162d2                  _rfcomm_disconnect_internal
                  0x0162ee                  _l2cap_accept_connection_internal
                  0x01630a                  _l2cap_disconnect_internal
                  0x016326                  _de_push_sequence
                  0x016342                  _sdp_set_attribute_value_for_attribute_id
                  0x01635e                  _sdp_append_attributes_in_attributeIDList
                  0x01637a                  _ConnectionCloseChannel
                  0x016394                  _BTTasks
                  0x0163ae                  _ADBBufferUnref
                  0x0163c8                  _USBHostAndroidTxIsComplete
                  0x0163e2                  _bt_store_32
                  0x0163fc                  _bt_flip_addr
                  0x016416                  _connection_for_handle
                  0x016430                  _hci_close
                  0x01644a                  _l2cap_get_channel_for_local_cid
                  0x016464                  _l2cap_get_remote_mtu_for_local_cid
                  0x01647e                  l2cap.o:_l2cap_packet_handler
                  0x016498                  _sdp_unregister_services_for_connection
                  0x0164b2                  _sdp_record_matches_service_search_pattern
                  0x0164cc                  _USB_ApplicationEventHandler
                  0x0164e4                  _hci_send_cmd
                  0x01652c                  _de_get_len
                  0x016544                  _ConnectionGetMaxPacket
                  0x01655a                  _ADBClose
                  0x016570                  _ADBWrite
                  0x01659c                  _hci_discoverable_control
                  0x0165f4                  _de_get_header_size
                  0x01660a                  _sdp_get_attribute_value_for_attribute_id
                  0x016620                  _spd_get_filtered_size
                  0x016636                  _sdp_record_contains_UUID128
                  0x01664c                  _sdp_attribute_list_constains_id
                  0x016662                  _de_dump_data_element
                  0x016678                  _linked_list_add
                  0x01668e                  _linked_list_remove
                  0x0166a4                  _l2cap_next_sig_id
                  0x0166ba                  _hci_connectable_control
                  0x0166ce                  _linked_list_add_tail
                  0x0166e2                  _memory_pool_create
                  0x0166f6                  _ADBPacketSendStatus
                  0x016708                  _USBHostAndroidReset
                  0x01671a                  _USBHostBluetoothReset
                  0x01672c                  _l2cap_register_fixed_channel
                  0x01673e                  _linked_list_get_last_item
                  0x016750                  _ADBInit
                  0x016760                  _ADBFileInit
                  0x016780                  _TimersInit
                  0x01678e                  _ConnectionInit
                  0x01679c                  _AccessoryInit
                  0x0167aa                  _ADBConnected
                  0x0167b8                  _hci_create_cmd
                  0x0167d4                  _sdp_normalize_uuid
                  0x0167e2                  sdp_util.o:_sdp_traversal_attribute_by_id
                  0x0167f0                  _USBHostBluetoothGetDeviceId
                  0x0167fc                  _USBHostBluetoothReadBulk
                  0x016808                  _USBHostBluetoothReadInt
                  0x016814                  _USBHostBluetoothWriteBulk
                  0x016820                  _USBHostBluetoothWriteControl
                  0x01682c                  _hexdump
                  0x016838                  _hci_drop_link_key_for_bd_addr
                  0x016844                  _rfcomm_init
                  0x016850                  _sdp_init
                  0x01685c                  _linked_list_empty
                  0x016868                  _memory_pool_get
                  0x016874                  _AccessoryOpenChannel
                  0x01687e                  _AccessoryCloseChannel
                  0x016888                  _BTAccepting
                  0x016892                  _BTWrite
                  0x01689c                  _USBHostDeviceSpecificClientDriver
                  0x0168a6                  _bt_store_16
                  0x0168b0                  _net_store_16
                  0x0168ba                  _crc8_calc
                  0x0168c4                  _de_create_sequence
                  0x0168ce                  _AccessoryWrite
                  0x0168d6                  _ADBBufferRef
                  0x0168de                  _ADBPacketReset
                  0x0168e6                  _rfcomm_register_service_internal
                  0x0168ee                  _rfcomm_register_service_with_initial_credits_internal
                  0x0168f6                  _rfcomm_create_channel_internal
                  0x0168fe                  _rfcomm_create_channel_with_initial_credits_internal
                  0x016906                  _btstack_memory_hci_connection_free
                  0x01690e                  _btstack_memory_l2cap_service_free
                  0x016916                  _btstack_memory_l2cap_channel_free
                  0x01691e                  _btstack_memory_rfcomm_multiplexer_free
                  0x016926                  _btstack_memory_rfcomm_service_free
                  0x01692e                  _btstack_memory_rfcomm_channel_free
                  0x016936                  _btstack_memory_db_mem_device_link_key_free
                  0x01693e                  _l2cap_get_outgoing_buffer
                  0x016946                  _l2cap_max_mtu
                  0x01694e                  _sdp_register_packet_handler
                  0x016956                  _l2cap_next_local_cid
                  0x01695e                  _ConnectionOpenChannelAccessory
                  0x016964                  _AccessoryShutdown
                  0x01696a                  _ADBAttached
                  0x016970                  _ADBPacketRecv
                  0x016976                  _btstack_memory_hci_connection_get
                  0x01697c                  _btstack_memory_l2cap_service_get
                  0x016982                  _btstack_memory_l2cap_channel_get
                  0x016988                  _btstack_memory_rfcomm_multiplexer_get
                  0x01698e                  _btstack_memory_rfcomm_service_get
                  0x016994                  _btstack_memory_rfcomm_channel_get
                  0x01699a                  _btstack_memory_db_mem_device_link_key_get
                  0x0169a0                  _l2cap_block_new_credits
                  0x0169a6                  _de_get_size_type
                  0x0169ac                  _de_get_element_type
                  0x0169b8                  _linked_item_set_user
                  0x0169be                  _hci_dump_log
                  0x0169c4                  _memory_pool_free
                  0x0169ca                  _ConnectionOpenChannelBtServer
                  0x0169ce                  _BTSetCallback
                  0x0169d2                  _BTCanWrite
                  0x0169d6                  _BTClose
                  0x0169da                  _USBHostGetDeviceInfo
                  0x0169de                  _hci_usable_acl_packet_types
                  0x0169e2                  _hci_get_outgoing_acl_packet_buffer
                  0x0169e6                  _hci_max_acl_data_packet_length
                  0x0169ea                  _hci_register_packet_handler
                  0x0169ee                  _rfcomm_register_packet_handler
                  0x0169f2                  hci_transport_mchpusb.o:_usb_register_packet_handler
                  0x0169f6                  hci_transport_mchpusb.o:_usb_get_transport_name
                  0x0169fa                  _l2cap_register_packet_handler
                  0x0169fe                  _linked_item_get_user
                  0x016a02                  _ConnectionResetUSB
                  0x016a04                  _ConnectionOpenChannelAdb
                  0x016a06                  accessory.o:_DummyCallback
                  0x016a08                  bt_app.o:_DummyCallback
                  0x016a0a                  _BTShutdown
                  0x016a0c                  _printUUID
                  0x016a0e                  _print_bd_addr
                  0x016a10                  hci.o:_hci_connection_timeout_handler
                  0x016a12                  hci.o:_dummy_handler
                  0x016a14                  _btstack_memory_db_mem_device_name_get
                  0x016a16                  _btstack_memory_db_mem_device_name_free
                  0x016a18                  _btstack_memory_db_mem_service_get
                  0x016a1a                  _btstack_memory_db_mem_service_free
                  0x016a1c                  hci_transport_mchpusb.o:_usb_open
                  0x016a1e                  hci_transport_mchpusb.o:_usb_close
                  0x016a20                  remote_device_db_memory.o:_db_open
                  0x016a22                  remote_device_db_memory.o:_db_close
                  0x016a24                  l2cap.o:_null_packet_handler
                  0x016a26                  _sdp_add_attribute
                  0x016a28                  _hci_dump_open
                  0x016a2a                  _hci_dump_packet
                  0x016a2c                  _hci_dump_close

External Symbols in Program Memory (by name):

                  0x01696a                  _ADBAttached
                  0x0168d6                  _ADBBufferRef
                  0x0163ae                  _ADBBufferUnref
                  0x0160d4                  _ADBChannelReady
                  0x01655a                  _ADBClose
                  0x0167aa                  _ADBConnected
                  0x015f1a                  _ADBFileClose
                  0x016760                  _ADBFileInit
                  0x0147f6                  _ADBFileRead
                  0x014b52                  _ADBFileTasks
                  0x016750                  _ADBInit
                  0x013fde                  _ADBOpen
                  0x016970                  _ADBPacketRecv
                  0x01577c                  _ADBPacketRecvStatus
                  0x0168de                  _ADBPacketReset
                  0x015032                  _ADBPacketSend
                  0x0166f6                  _ADBPacketSendStatus
                  0x0129a6                  _ADBPacketTasks
                  0x010656                  _ADBTasks
                  0x016570                  _ADBWrite
                  0x01111a                  _ADCInit
                  0x011154                  _ADCSetScan
                  0x015c46                  _AccessoryCanWrite
                  0x01687e                  _AccessoryCloseChannel
                  0x01679c                  _AccessoryInit
                  0x016874                  _AccessoryOpenChannel
                  0x016964                  _AccessoryShutdown
                  0x0135ca                  _AccessoryTasks
                  0x0168ce                  _AccessoryWrite
                  0x00a38e                  _Alias_LFN_Object
                  0x013372                  _AppCallback
                  0x00cbbe                  _AppProtocolHandleIncoming
                  0x00cb22                  _AppProtocolInit
                  0x00ca94                  _AppProtocolSendMessage
                  0x00cad2                  _AppProtocolSendMessageWithVarArg
                  0x00c9a8                  _AppProtocolSendMessageWithVarArgSplit
                  0x00ca0a                  _AppProtocolTasks
                  0x016888                  _BTAccepting
                  0x0169d2                  _BTCanWrite
                  0x0169d6                  _BTClose
                  0x014aae                  _BTInit
                  0x0169ce                  _BTSetCallback
                  0x016a0a                  _BTShutdown
                  0x016394                  _BTTasks
                  0x016892                  _BTWrite
                  0x011cfa                  _ByteQueueOverflow
                  0x011d68                  _ByteQueuePeek
                  0x011d28                  _ByteQueuePeekMax
                  0x011d4e                  _ByteQueuePull
                  0x011cfc                  _ByteQueuePullByte
                  0x011e26                  _ByteQueuePullToBuffer
                  0x011db6                  _ByteQueuePushBuffer
                  0x011d86                  _ByteQueuePushByte
                  0x007934                  _CacheTime
                  0x0075b2                  _Cache_File_Entry
                  0x006e58                  _CharacterArray
                  0x00f4ba                  _CheckInterface
                  0x00d2b4                  _CloseSPIM
                  0x006e8e                  _Cluster2Sector
                  0x014e4a                  _ConnAccessoryTasks
                  0x015946                  _ConnectionCanOpenChannel
                  0x015e8a                  _ConnectionCanSend
                  0x01637a                  _ConnectionCloseChannel
                  0x016544                  _ConnectionGetMaxPacket
                  0x01678e                  _ConnectionInit
                  0x01695e                  _ConnectionOpenChannelAccessory
                  0x016a04                  _ConnectionOpenChannelAdb
                  0x0169ca                  _ConnectionOpenChannelBtServer
                  0x016a02                  _ConnectionResetUSB
                  0x015d0e                  _ConnectionSend
                  0x013a56                  _ConnectionTasks
                  0x015b1c                  _ConnectionTypeSupported
                  0x00b606                  _CreateDIR
                  0x00a642                  _CreateFileEntry
                  0x007bee                  _CreateFirstCluster
                  0x008eba                  _DISKmount
                  0x00d744                  _Delayms
                  0x007b1e                  _EraseCluster
                  0x007844                  _FAT_erase_cluster_chain
                  0x007a6a                  _FATfindEmptyCluster
                  0x007b92                  _FILECreateHeadCluster
                  0x007c2a                  _FILEallocate_new_cluster
                  0x00a800                  _FILEerase
                  0x009924                  _FILEfind
                  0x0077a8                  _FILEget_next_cluster
                  0x009862                  _FILEopen
                  0x006f60                  _FSCreateMBR
                  0x008f1e                  _FSInit
                  0x007f9a                  _FSattrib
                  0x00b004                  _FSchdir
                  0x007f94                  _FSerror
                  0x007d4e                  _FSfclose
                  0x008208                  _FSfeof
                  0x00aa2a                  _FSfopen
                  0x008f9e                  _FSformat
                  0x008222                  _FSfread
                  0x007e0a                  _FSfseek
                  0x007f64                  _FSftell
                  0x008004                  _FSfwrite
                  0x00b21a                  _FSgetcwd
                  0x00b9ba                  _FSmkdir
                  0x00a944                  _FSremove
                  0x00ac92                  _FSrename
                  0x007f6e                  _FSrewind
                  0x00bf82                  _FSrmdir
                  0x007a5c                  _FileObjectCopy
                  0x0097ac                  _Fill_File_Object
                  0x00775c                  _Fill_LFN_Object
                  0x007c8e                  _FindEmptyEntries
                  0x00a1f6                  _FindFirst
                  0x00a0a4                  _FindNext
                  0x00877c                  _FormatDirName
                  0x00857c                  _FormatFileName
                  0x006f18                  _GetFullClusterNumber
                  0x00b00c                  _GetPreviousEntry
                  0x00f4b6                  _HardReset
                  0x00f162                  _I2CConfigMaster
                  0x00f166                  _I2CInit
                  0x00eee8                  _I2CTasks
                  0x00f006                  _I2CWriteRead
                  0x01038a                  _ICSPConfigure
                  0x0104d8                  _ICSPEnter
                  0x010374                  _ICSPExit
                  0x010446                  _ICSPRegout
                  0x0105c0                  _ICSPSix
                  0x0103e2                  _ICSPTasks
                  0x00ec12                  _InCapConfig
                  0x00ec16                  _InCapInit
                  0x00d78a                  _InitSPISlowMode
                  0x008b9a                  _LoadBootSector
                  0x0078f2                  _LoadDirAttrib
                  0x008a84                  _LoadMBR
                  0x00d39e                  _MDD_SDSPI_AsyncReadTasks
                  0x00d544                  _MDD_SDSPI_AsyncWriteTasks
                  0x00d2ae                  _MDD_SDSPI_InitIO
                  0x00d29c                  _MDD_SDSPI_MediaDetect
                  0x00d7ae                  _MDD_SDSPI_MediaInitialize
                  0x00d2a8                  _MDD_SDSPI_ReadCapacity
                  0x00d2c6                  _MDD_SDSPI_ReadMedia
                  0x00d2a4                  _MDD_SDSPI_ReadSectorSize
                  0x00d516                  _MDD_SDSPI_SectorRead
                  0x00d70e                  _MDD_SDSPI_SectorWrite
                  0x00da44                  _MDD_SDSPI_ShutdownMedia
                  0x00d742                  _MDD_SDSPI_WriteProtectState
                  0x00d760                  _OpenSPIM
                  0x014e3c                  _PWMInit
                  0x01218e                  _PinFromAnalogChannel
                  0x012154                  _PinFromPortB
                  0x01215c                  _PinFromPortC
                  0x012166                  _PinFromPortD
                  0x012170                  _PinFromPortE
                  0x01217a                  _PinFromPortF
                  0x012184                  _PinFromPortG
                  0x012076                  _PinGetPort
                  0x012042                  _PinSetAnsel
                  0x0120a2                  _PinSetCnen
                  0x0120ee                  _PinSetCnforce
                  0x01212a                  _PinSetCnpd
                  0x012110                  _PinSetCnpu
                  0x01205c                  _PinSetLat
                  0x012088                  _PinSetOdc
                  0x012144                  _PinSetRpor
                  0x012028                  _PinSetTris
                  0x012196                  _PinToAnalogChannel
                  0x0121a8                  _PinToRpin
                  0x011b96                  _PixelFrame
                  0x011b60                  _PixelInit
                  0x011bec                  _PixelInteractive
                  0x011bb8                  _PixelPlayFile
                  0x011b62                  _PixelTasks
                  0x011c4c                  _PixelWriteFile
                  0x0079cc                  _PopulateEntries
                  0x006ee2                  _ReadByte
                  0x006ef4                  _ReadDWord
                  0x007392                  _ReadFAT
                  0x006ee8                  _ReadWord
                  0x01146a                  _RgbLedMatrixEnable
                  0x0114d8                  _RgbLedMatrixFrame
                  0x0114f6                  _RgbLedMatrixFrameSize
                  0x00e040                  _SPIConfigMaster
                  0x00e044                  _SPIInit
                  0x00dcda                  _SPITasks
                  0x00deb0                  _SPITransmit
                  0x00d2d6                  _SendMMCCmd
                  0x010d98                  _SetChangeNotify
                  0x010dd8                  _SetDigitalOutLevel
                  0x00f3f0                  _SetPinAnalogIn
                  0x00f186                  _SetPinDigitalIn
                  0x00f1ec                  _SetPinDigitalOut
                  0x00f2da                  _SetPinInCap
                  0x00f22c                  _SetPinPwm
                  0x00f420                  _SetPinSpi
                  0x00f242                  _SetPinUart
                  0x014e22                  _SetPwmDutyCycle
                  0x014e02                  _SetPwmPeriod
                  0x00f520                  _SoftReset
                  0x016780                  _TimersInit
                  0x010922                  _UART2Char2Hex
                  0x010974                  _UART2ClrError
                  0x0108e8                  _UART2GetBaudError
                  0x0108ea                  _UART2GetChar
                  0x010962                  _UART2Hex2Char
                  0x0108f8                  _UART2Init
                  0x01090c                  _UART2IsPressed
                  0x01097e                  _UART2PrintString
                  0x010914                  _UART2PutChar
                  0x01099c                  _UART2PutDec
                  0x010a22                  _UART2PutHex
                  0x010a94                  _UART2PutHexDWord
                  0x010a4a                  _UART2PutHexWord
                  0x00e584                  _UARTConfig
                  0x00e588                  _UARTInit
                  0x00e25c                  _UARTTasks
                  0x00e336                  _UARTTransmit
                  0x015f3c                  _USBHostAndroidEventHandler
                  0x0155cc                  _USBHostAndroidInitDevice
                  0x01445c                  _USBHostAndroidInitInterface
                  0x0153ca                  _USBHostAndroidRead
                  0x016708                  _USBHostAndroidReset
                  0x016174                  _USBHostAndroidRxIsComplete
                  0x0142ce                  _USBHostAndroidTasks
                  0x0163c8                  _USBHostAndroidTxIsComplete
                  0x015602                  _USBHostAndroidWrite
                  0x014742                  _USBHostBluetoothCallback
                  0x015a36                  _USBHostBluetoothEventHandler
                  0x0167f0                  _USBHostBluetoothGetDeviceId
                  0x013446                  _USBHostBluetoothInit
                  0x0167fc                  _USBHostBluetoothReadBulk
                  0x016808                  _USBHostBluetoothReadInt
                  0x01671a                  _USBHostBluetoothReset
                  0x013508                  _USBHostBluetoothTasks
                  0x016814                  _USBHostBluetoothWriteBulk
                  0x016820                  _USBHostBluetoothWriteControl
                  0x015b74                  _USBHostClearEndpointErrors
                  0x01689c                  _USBHostDeviceSpecificClientDriver
                  0x015638                  _USBHostDeviceStatus
                  0x0169da                  _USBHostGetDeviceInfo
                  0x01566e                  _USBHostInit
                  0x0131bc                  _USBHostIssueDeviceRequest
                  0x014192                  _USBHostRead
                  0x016246                  _USBHostResetDevice
                  0x016192                  _USBHostResumeDevice
                  0x0151ea                  _USBHostSetDeviceConfiguration
                  0x0158b0                  _USBHostSetNAKTimeout
                  0x0156a4                  _USBHostShutdown
                  0x0161b0                  _USBHostSuspendDevice
                  0x00bf8c                  _USBHostTasks
                  0x015f5e                  _USBHostTerminateTransfer
                  0x0144bc                  _USBHostTransferIsComplete
                  0x015c6e                  _USBHostVbusEvent
                  0x0141fc                  _USBHostWrite
                  0x0164cc                  _USB_ApplicationEventHandler
                  0x0083ac                  _ValidateChars
                  0x00713a                  _WriteFAT
                  0x00d2b8                  _WriteSPIM
                  0x0070b6                  _Write_File_Entry
                  0x011106                  __ADC1Interrupt
                  0x010e02                  __CNInterrupt
                  0x01107a                  __CRCInterrupt
                  0x005004                  __DEFAULT_VECTOR
                  0x0062ee                  __DefaultInterrupt
                  0x00eabe                  __IC1Interrupt
                  0x00ea9c                  __IC2Interrupt
                  0x00ea7a                  __IC3Interrupt
                  0x00ea58                  __IC4Interrupt
                  0x00ea36                  __IC5Interrupt
                  0x00ea14                  __IC6Interrupt
                  0x00e9f2                  __IC7Interrupt
                  0x00e9d0                  __IC8Interrupt
                  0x00e9ae                  __IC9Interrupt
                  0x00ee82                  __MI2C1Interrupt
                  0x00eea4                  __MI2C2Interrupt
                  0x00eec6                  __MI2C3Interrupt
                  0x00dc74                  __SPI1Interrupt
                  0x00dc96                  __SPI2Interrupt
                  0x00dcb8                  __SPI3Interrupt
                  0x010fe6                  __T3Interrupt
                  0x0114fe                  __T4Interrupt
                  0x00e864                  __T5Interrupt
                  0x00e5b8                  __U1RXInterrupt
                  0x00e440                  __U1TXInterrupt
                  0x00e5fa                  __U2RXInterrupt
                  0x00e41e                  __U2TXInterrupt
                  0x00e63c                  __U3RXInterrupt
                  0x00e3fc                  __U3TXInterrupt
                  0x00e21a                  __U4RXInterrupt
                  0x00e3da                  __U4TXInterrupt
                  0x005fe6                  __USB1Interrupt
                  0x0157b0                  __USB_CheckCommandAndEnumerationAttempts
                  0x013b6e                  __USB_FindClassDriver
                  0x013ae2                  __USB_FindDeviceLevelClientDriver
                  0x015976                  __USB_FindEndpoint
                  0x0116a2                  __USB_FindNextToken
                  0x013c86                  __USB_FindServiceEndpoint
                  0x014bf2                  __USB_FreeConfigMemory
                  0x015226                  __USB_FreeMemory
                  0x014e92                  __USB_InitControlRead
                  0x014a06                  __USB_InitControlWrite
                  0x01484e                  __USB_InitRead
                  0x0148a6                  __USB_InitWrite
                  0x01457a                  __USB_NotifyClients
                  0x010b40                  __USB_ParseConfigurationDescriptor
                  0x0151ae                  __USB_ResetDATA0
                  0x015132                  __USB_SendToken
                  0x012ef0                  __USB_SetBDT
                  0x01587e                  __USB_TransferInProgress
                  0x0055d6                  ___divdi3
                  0x005610                  ___moddi3
                  0x0053c6                  ___mulp32eds3
                  0x0053c6                  ___mulp32peds3
                  0x0053c6                  ___mulsi3
                  0x0055c0                  ___udivdi3
                  0x0054f2                  ___udivmoddi3
                  0x0054a6                  ___udivsi3
                  0x0055ce                  ___umoddi3
                  0x0054c6                  ___umodsi3
                  0x00513e                  __data_init
                  0x00513e                  __data_init_extended
                  0x005390                  __memcpy_helper
                  0x005956                  __printf_cdnopsuxX
                  0x005132                  __psv_init
                  0x005110                  __resetPRI
                  0x005732                  __sprintf_cdnopuxX
                  0x005968                  __vfprintf_cdnopsuxX
                  0x005968                  __vfprintf_cdnopuxX
                  0x0158e2                  _bd_addr_to_str
                  0x0163fc                  _bt_flip_addr
                  0x0168a6                  _bt_store_16
                  0x0163e2                  _bt_store_32
                  0x006a18                  _btstack_get_state
                  0x006a08                  _btstack_get_system_bluetooth_enabled
                  0x006a0c                  _btstack_get_version
                  0x016936                  _btstack_memory_db_mem_device_link_key_free
                  0x01699a                  _btstack_memory_db_mem_device_link_key_get
                  0x016a16                  _btstack_memory_db_mem_device_name_free
                  0x016a14                  _btstack_memory_db_mem_device_name_get
                  0x016a1a                  _btstack_memory_db_mem_service_free
                  0x016a18                  _btstack_memory_db_mem_service_get
                  0x016906                  _btstack_memory_hci_connection_free
                  0x016976                  _btstack_memory_hci_connection_get
                  0x014a5a                  _btstack_memory_init
                  0x016916                  _btstack_memory_l2cap_channel_free
                  0x016982                  _btstack_memory_l2cap_channel_get
                  0x01690e                  _btstack_memory_l2cap_service_free
                  0x01697c                  _btstack_memory_l2cap_service_get
                  0x01692e                  _btstack_memory_rfcomm_channel_free
                  0x016994                  _btstack_memory_rfcomm_channel_get
                  0x01691e                  _btstack_memory_rfcomm_multiplexer_free
                  0x016988                  _btstack_memory_rfcomm_multiplexer_get
                  0x016926                  _btstack_memory_rfcomm_service_free
                  0x01698e                  _btstack_memory_rfcomm_service_get
                  0x006a10                  _btstack_set_acl_capture_mode
                  0x0069fa                  _btstack_set_bluetooth_enabled
                  0x0069fe                  _btstack_set_discoverable
                  0x006a14                  _btstack_set_power_mode
                  0x006a02                  _btstack_set_system_bluetooth_enabled
                  0x00ad72                  _chdirhelper
                  0x006324                  _cn_info
                  0x016416                  _connection_for_handle
                  0x01627e                  _crc8
                  0x0168ba                  _crc8_calc
                  0x015f80                  _crc8_check
                  0x0149ae                  _de_add_data
                  0x014126                  _de_add_number
                  0x015594                  _de_add_uuid128
                  0x0168c4                  _de_create_sequence
                  0x016662                  _de_dump_data_element
                  0x014632                  _de_get_data_size
                  0x0169ac                  _de_get_element_type
                  0x0165f4                  _de_get_header_size
                  0x01652c                  _de_get_len
                  0x014396                  _de_get_normalized_uuid
                  0x0169a6                  _de_get_size_type
                  0x0160b2                  _de_pop_sequence
                  0x016326                  _de_push_sequence
                  0x015e3e                  _de_store_descriptor_with_len
                  0x00a8de                  _eraseDir
                  0x006f2c                  _flushData
                  0x0058ce                  _free
                  0x006aec                  _hci_accept_connection_request
                  0x015cbe                  _hci_authentication_active_for_handle
                  0x006acc                  _hci_authentication_requested
                  0x0159a6                  _hci_can_send_packet_now
                  0x006ac0                  _hci_change_connection_link_key
                  0x016430                  _hci_close
                  0x0166ba                  _hci_connectable_control
                  0x0167b8                  _hci_create_cmd
                  0x012762                  _hci_create_cmd_internal
                  0x006b00                  _hci_create_connection
                  0x006af0                  _hci_create_connection_cancel
                  0x006a7a                  _hci_delete_stored_link_key
                  0x006af4                  _hci_disconnect
                  0x01659c                  _hci_discoverable_control
                  0x016838                  _hci_drop_link_key_for_bd_addr
                  0x016a2c                  _hci_dump_close
                  0x0169be                  _hci_dump_log
                  0x016a28                  _hci_dump_open
                  0x016a2a                  _hci_dump_packet
                  0x014f68                  _hci_emit_connection_complete
                  0x015170                  _hci_emit_disconnection_complete
                  0x015d5a                  _hci_emit_discoverable_enabled
                  0x015fa2                  _hci_emit_hci_open_failed
                  0x015a64                  _hci_emit_l2cap_check_timeout
                  0x0157e4                  _hci_emit_nr_connections_changed
                  0x014c3e                  _hci_emit_remote_name_cached
                  0x015c96                  _hci_emit_state
                  0x015d80                  _hci_emit_system_bluetooth_enabled
                  0x0169e2                  _hci_get_outgoing_acl_packet_buffer
                  0x006a58                  _hci_host_buffer_size
                  0x015262                  _hci_init
                  0x006b0c                  _hci_inquiry
                  0x006b04                  _hci_inquiry_cancel
                  0x006adc                  _hci_link_key_request_negative_reply
                  0x006ae4                  _hci_link_key_request_reply
                  0x0169e6                  _hci_max_acl_data_packet_length
                  0x01629a                  _hci_number_free_acl_slots
                  0x0162b6                  _hci_number_outgoing_packets
                  0x006ad0                  _hci_pin_code_request_negative_reply
                  0x006ad8                  _hci_pin_code_request_reply
                  0x0130d6                  _hci_power_control
                  0x006aa2                  _hci_qos_setup
                  0x006a1c                  _hci_read_bd_addr
                  0x006a20                  _hci_read_buffer_size
                  0x006a30                  _hci_read_le_host_supported
                  0x006a8e                  _hci_read_link_policy_settings
                  0x006a4e                  _hci_read_link_supervision_timeout
                  0x006a24                  _hci_read_local_supported_features
                  0x006a60                  _hci_read_num_broadcast_retransmissions
                  0x0169ea                  _hci_register_packet_handler
                  0x006ae8                  _hci_reject_connection_request
                  0x006abc                  _hci_remote_name_request
                  0x006ab2                  _hci_remote_name_request_cancel
                  0x006a7e                  _hci_reset
                  0x006a96                  _hci_role_discovery
                  0x0118c4                  _hci_run
                  0x014f22                  _hci_send_acl_packet
                  0x0164e4                  _hci_send_cmd
                  0x012fe4                  _hci_send_cmd_packet
                  0x006ac8                  _hci_set_connection_encryption
                  0x006a86                  _hci_set_event_mask
                  0x006aac                  _hci_sniff_mode
                  0x006a92                  _hci_switch_role_command
                  0x015bf2                  _hci_transport_mchpusb_instance
                  0x01602a                  _hci_transport_mchpusb_tasks
                  0x0169de                  _hci_usable_acl_packet_types
                  0x006a6a                  _hci_write_authentication_enable
                  0x006a66                  _hci_write_class_of_device
                  0x006a3c                  _hci_write_extended_inquiry_response
                  0x006a40                  _hci_write_inquiry_mode
                  0x006a2c                  _hci_write_le_host_supported
                  0x006a8a                  _hci_write_link_policy_settings
                  0x006a48                  _hci_write_link_supervision_timeout
                  0x006a76                  _hci_write_local_name
                  0x006a5c                  _hci_write_num_broadcast_retransmissions
                  0x006a72                  _hci_write_page_timeout
                  0x006a6e                  _hci_write_scan_enable
                  0x006a34                  _hci_write_simple_pairing_mode
                  0x01682c                  _hexdump
                  0x006d65                  _incoming_arg_size
                  0x0069d4                  _l2cap_accept_connection
                  0x0162ee                  _l2cap_accept_connection_internal
                  0x013926                  _l2cap_acl_handler
                  0x0169a0                  _l2cap_block_new_credits
                  0x016090                  _l2cap_can_send_packet_now
                  0x015352                  _l2cap_close_connection
                  0x0069f4                  _l2cap_create_channel
                  0x013d8c                  _l2cap_create_channel_internal
                  0x0069ec                  _l2cap_create_channel_mtu
                  0x0137e8                  _l2cap_create_signaling_internal
                  0x0069d0                  _l2cap_decline_connection
                  0x01620a                  _l2cap_decline_connection_internal
                  0x0069e4                  _l2cap_disconnect
                  0x01630a                  _l2cap_disconnect_internal
                  0x0161ec                  _l2cap_dispatch
                  0x0150b2                  _l2cap_emit_credits
                  0x0121b0                  _l2cap_event_handler
                  0x01644a                  _l2cap_get_channel_for_local_cid
                  0x01693e                  _l2cap_get_outgoing_buffer
                  0x016464                  _l2cap_get_remote_mtu_for_local_cid
                  0x0152da                  _l2cap_hand_out_credits
                  0x016134                  _l2cap_init
                  0x016946                  _l2cap_max_mtu
                  0x016956                  _l2cap_next_local_cid
                  0x0166a4                  _l2cap_next_sig_id
                  0x01672c                  _l2cap_register_fixed_channel
                  0x0169fa                  _l2cap_register_packet_handler
                  0x0069e0                  _l2cap_register_service
                  0x0145d6                  _l2cap_register_service_internal
                  0x011228                  _l2cap_run
                  0x0154b2                  _l2cap_send_connectionless
                  0x015746                  _l2cap_send_internal
                  0x013e08                  _l2cap_send_prepared
                  0x01479c                  _l2cap_send_prepared_connectionless
                  0x015316                  _l2cap_send_signaling_packet
                  0x014ff0                  _l2cap_signaling_handle_configure_request
                  0x013298                  _l2cap_signaling_handler_channel
                  0x0124ac                  _l2cap_signaling_handler_dispatch
                  0x0069d8                  _l2cap_unregister_service
                  0x015710                  _l2cap_unregister_service_internal
                  0x0169fe                  _linked_item_get_user
                  0x0169b8                  _linked_item_set_user
                  0x016678                  _linked_list_add
                  0x0166ce                  _linked_list_add_tail
                  0x01685c                  _linked_list_empty
                  0x01673e                  _linked_list_get_last_item
                  0x01668e                  _linked_list_remove
                  0x013392                  _main
                  0x0057aa                  _malloc
                  0x0056f0                  _memcmp
                  0x0056e2                  _memcpy
                  0x0166e2                  _memory_pool_create
                  0x0169c4                  _memory_pool_free
                  0x016868                  _memory_pool_get
                  0x005724                  _memset
                  0x00b6c6                  _mkdirhelper
                  0x0168b0                  _net_store_16
                  0x016262                  _net_store_32
                  0x006d44                  _outgoing_arg_size
                  0x00fcfe                  _packet_handler
                  0x0062f2                  _pin_to_rpin
                  0x00650e                  _port_info
                  0x016a0c                  _printUUID
                  0x016a0e                  _print_bd_addr
                  0x005964                  _putchar
                  0x0058da                  _realloc
                  0x006e46                  _remote_device_db_memory
                  0x006992                  _rfcomm_accept_connection
                  0x015524                  _rfcomm_accept_connection_internal
                  0x015818                  _rfcomm_can_send
                  0x012bd8                  _rfcomm_channel_packet_handler
                  0x01529e                  _rfcomm_close_connection
                  0x0069c0                  _rfcomm_create_channel
                  0x013d0c                  _rfcomm_create_channel2
                  0x0168f6                  _rfcomm_create_channel_internal
                  0x0069b8                  _rfcomm_create_channel_with_initial_credits
                  0x0168fe                  _rfcomm_create_channel_with_initial_credits_internal
                  0x00698c                  _rfcomm_decline_connection
                  0x016008                  _rfcomm_decline_connection_internal
                  0x0069aa                  _rfcomm_disconnect
                  0x0162d2                  _rfcomm_disconnect_internal
                  0x015df2                  _rfcomm_grant_credits
                  0x0069ae                  _rfcomm_grants_credits
                  0x016844                  _rfcomm_init
                  0x010068                  _rfcomm_packet_handler
                  0x006984                  _rfcomm_persistent_channel_for_service
                  0x0169ee                  _rfcomm_register_packet_handler
                  0x0069a6                  _rfcomm_register_service
                  0x013e80                  _rfcomm_register_service2
                  0x0168e6                  _rfcomm_register_service_internal
                  0x00699e                  _rfcomm_register_service_with_initial_credits
                  0x0168ee                  _rfcomm_register_service_with_initial_credits_internal
                  0x0140ba                  _rfcomm_send_internal
                  0x006996                  _rfcomm_unregister_service
                  0x015404                  _rfcomm_unregister_service_internal
                  0x00b9c2                  _rmdirhelper
                  0x006ccc                  _sdmmc_cmdtable
                  0x016a26                  _sdp_add_attribute
                  0x01635e                  _sdp_append_attributes_in_attributeIDList
                  0x01664c                  _sdp_attribute_list_constains_id
                  0x006c2e                  _sdp_bluetooth_base_uuid
                  0x015ac0                  _sdp_create_error_response
                  0x015a06                  _sdp_create_service_record_handle
                  0x011e96                  _sdp_create_spp_service
                  0x015c1c                  _sdp_filter_attributes_in_attributeIDList
                  0x01660a                  _sdp_get_attribute_value_for_attribute_id
                  0x016228                  _sdp_get_record_for_handle
                  0x014c8a                  _sdp_get_service_record_handle
                  0x012ac0                  _sdp_handle_service_attribute_request
                  0x012330                  _sdp_handle_service_search_attribute_request
                  0x012cea                  _sdp_handle_service_search_request
                  0x016850                  _sdp_init
                  0x0167d4                  _sdp_normalize_uuid
                  0x016636                  _sdp_record_contains_UUID128
                  0x0164b2                  _sdp_record_matches_service_search_pattern
                  0x01694e                  _sdp_register_packet_handler
                  0x01388a                  _sdp_register_service_internal
                  0x0069cc                  _sdp_register_service_record
                  0x016342                  _sdp_set_attribute_value_for_attribute_id
                  0x015aee                  _sdp_traversal_match_pattern
                  0x015ce6                  _sdp_unregister_service_internal
                  0x0069c6                  _sdp_unregister_service_record
                  0x016498                  _sdp_unregister_services_for_connection
                  0x016620                  _spd_get_filtered_size
                  0x00579a                  _strcpy
                  0x00578e                  _strlen
                  0x005934                  _strncmp
                  0x005760                  _strncpy
                  0x0053e0                  _tolower
                  0x0053d2                  _toupper
                  0x006c68                  _type_names
                  0x00aff2                  _wFSchdir
                  0x00ac86                  _wFSfopen
                  0x00b5fa                  _wFSgetcwd
                  0x00b9a8                  _wFSmkdir
                  0x00aa1e                  _wFSremove
                  0x00ad66                  _wFSrename
                  0x00bf6c                  _wFSrmdir
                  0x00a382                  _wFindFirst
                  0x00899e                  _writeDotEntries
                  0x016a06                  accessory.o:_DummyCallback
                  0x012626                  adb_file.o:_ADBFileCallback
                  0x016a08                  bt_app.o:_DummyCallback
                  0x012df0                  bt_app.o:_PacketHandler
                  0x00ec7e                  build/IOIO0023/production/i2c.o:__Set_MI2C1IE
                  0x00ec48                  build/IOIO0023/production/i2c.o:__Set_MI2C1IF
                  0x00ecb4                  build/IOIO0023/production/i2c.o:__Set_MI2C1IP
                  0x00ec90                  build/IOIO0023/production/i2c.o:__Set_MI2C2IE
                  0x00ec5a                  build/IOIO0023/production/i2c.o:__Set_MI2C2IF
                  0x00ecc8                  build/IOIO0023/production/i2c.o:__Set_MI2C2IP
                  0x00eca2                  build/IOIO0023/production/i2c.o:__Set_MI2C3IE
                  0x00ec6c                  build/IOIO0023/production/i2c.o:__Set_MI2C3IF
                  0x00ecda                  build/IOIO0023/production/i2c.o:__Set_MI2C3IP
                  0x00e71a                  build/IOIO0023/production/incap.o:__Set_IC1IE
                  0x00e67e                  build/IOIO0023/production/incap.o:__Set_IC1IF
                  0x00e7b6                  build/IOIO0023/production/incap.o:__Set_IC1IP
                  0x00e72c                  build/IOIO0023/production/incap.o:__Set_IC2IE
                  0x00e690                  build/IOIO0023/production/incap.o:__Set_IC2IF
                  0x00e7ca                  build/IOIO0023/production/incap.o:__Set_IC2IP
                  0x00e73e                  build/IOIO0023/production/incap.o:__Set_IC3IE
                  0x00e6a2                  build/IOIO0023/production/incap.o:__Set_IC3IF
                  0x00e7de                  build/IOIO0023/production/incap.o:__Set_IC3IP
                  0x00e750                  build/IOIO0023/production/incap.o:__Set_IC4IE
                  0x00e6b4                  build/IOIO0023/production/incap.o:__Set_IC4IF
                  0x00e7f2                  build/IOIO0023/production/incap.o:__Set_IC4IP
                  0x00e762                  build/IOIO0023/production/incap.o:__Set_IC5IE
                  0x00e6c6                  build/IOIO0023/production/incap.o:__Set_IC5IF
                  0x00e804                  build/IOIO0023/production/incap.o:__Set_IC5IP
                  0x00e772                  build/IOIO0023/production/incap.o:__Set_IC6IE
                  0x00e6d6                  build/IOIO0023/production/incap.o:__Set_IC6IF
                  0x00e818                  build/IOIO0023/production/incap.o:__Set_IC6IP
                  0x00e782                  build/IOIO0023/production/incap.o:__Set_IC7IE
                  0x00e6e6                  build/IOIO0023/production/incap.o:__Set_IC7IF
                  0x00e82a                  build/IOIO0023/production/incap.o:__Set_IC7IP
                  0x00e794                  build/IOIO0023/production/incap.o:__Set_IC8IE
                  0x00e6f8                  build/IOIO0023/production/incap.o:__Set_IC8IF
                  0x00e83c                  build/IOIO0023/production/incap.o:__Set_IC8IP
                  0x00e7a4                  build/IOIO0023/production/incap.o:__Set_IC9IE
                  0x00e708                  build/IOIO0023/production/incap.o:__Set_IC9IF
                  0x00e850                  build/IOIO0023/production/incap.o:__Set_IC9IP
                  0x00da80                  build/IOIO0023/production/spi.o:__Set_SPI1IE
                  0x00da4a                  build/IOIO0023/production/spi.o:__Set_SPI1IF
                  0x00dab6                  build/IOIO0023/production/spi.o:__Set_SPI1IP
                  0x00da92                  build/IOIO0023/production/spi.o:__Set_SPI2IE
                  0x00da5c                  build/IOIO0023/production/spi.o:__Set_SPI2IF
                  0x00dac8                  build/IOIO0023/production/spi.o:__Set_SPI2IP
                  0x00daa4                  build/IOIO0023/production/spi.o:__Set_SPI3IE
                  0x00da6e                  build/IOIO0023/production/spi.o:__Set_SPI3IF
                  0x00dadc                  build/IOIO0023/production/spi.o:__Set_SPI3IP
                  0x00e06a                  build/IOIO0023/production/uart.o:__Set_U1RXIE
                  0x00e0b0                  build/IOIO0023/production/uart.o:__Set_U1RXIF
                  0x00e0f6                  build/IOIO0023/production/uart.o:__Set_U1RXIP
                  0x00e140                  build/IOIO0023/production/uart.o:__Set_U1TXIE
                  0x00e186                  build/IOIO0023/production/uart.o:__Set_U1TXIF
                  0x00e1cc                  build/IOIO0023/production/uart.o:__Set_U1TXIP
                  0x00e07c                  build/IOIO0023/production/uart.o:__Set_U2RXIE
                  0x00e0c2                  build/IOIO0023/production/uart.o:__Set_U2RXIF
                  0x00e10a                  build/IOIO0023/production/uart.o:__Set_U2RXIP
                  0x00e152                  build/IOIO0023/production/uart.o:__Set_U2TXIE
                  0x00e198                  build/IOIO0023/production/uart.o:__Set_U2TXIF
                  0x00e1de                  build/IOIO0023/production/uart.o:__Set_U2TXIP
                  0x00e08e                  build/IOIO0023/production/uart.o:__Set_U3RXIE
                  0x00e0d4                  build/IOIO0023/production/uart.o:__Set_U3RXIF
                  0x00e11c                  build/IOIO0023/production/uart.o:__Set_U3RXIP
                  0x00e162                  build/IOIO0023/production/uart.o:__Set_U3TXIE
                  0x00e1a8                  build/IOIO0023/production/uart.o:__Set_U3TXIF
                  0x00e1f2                  build/IOIO0023/production/uart.o:__Set_U3TXIP
                  0x00e0a0                  build/IOIO0023/production/uart.o:__Set_U4RXIE
                  0x00e0e6                  build/IOIO0023/production/uart.o:__Set_U4RXIF
                  0x00e12e                  build/IOIO0023/production/uart.o:__Set_U4RXIP
                  0x00e174                  build/IOIO0023/production/uart.o:__Set_U4TXIE
                  0x00e1ba                  build/IOIO0023/production/uart.o:__Set_U4TXIF
                  0x00e206                  build/IOIO0023/production/uart.o:__Set_U4TXIP
                  0x016a12                  hci.o:_dummy_handler
                  0x016a10                  hci.o:_hci_connection_timeout_handler
                  0x016114                  hci_transport_mchpusb.o:_usb_can_send_packet
                  0x016a1e                  hci_transport_mchpusb.o:_usb_close
                  0x0169f6                  hci_transport_mchpusb.o:_usb_get_transport_name
                  0x016a1c                  hci_transport_mchpusb.o:_usb_open
                  0x0169f2                  hci_transport_mchpusb.o:_usb_register_packet_handler
                  0x015e18                  hci_transport_mchpusb.o:_usb_send_packet
                  0x01647e                  l2cap.o:_l2cap_packet_handler
                  0x016a24                  l2cap.o:_null_packet_handler
                  0x016a22                  remote_device_db_memory.o:_db_close
                  0x016a20                  remote_device_db_memory.o:_db_open
                  0x01604c                  remote_device_db_memory.o:_delete_link_key
                  0x01606e                  remote_device_db_memory.o:_delete_name
                  0x015478                  remote_device_db_memory.o:_get_link_key
                  0x01543e                  remote_device_db_memory.o:_get_name
                  0x014956                  remote_device_db_memory.o:_persistent_rfcomm_channel
                  0x014ba2                  remote_device_db_memory.o:_put_link_key
                  0x0148fe                  remote_device_db_memory.o:_put_name
                  0x013686                  sdp.o:_sdp_packet_handler
                  0x012884                  sdp_util.o:_de_traversal_dump_data
                  0x014266                  sdp_util.o:_sdp_traversal_append_attributes
                  0x014cd6                  sdp_util.o:_sdp_traversal_attributeID_search
                  0x0167e2                  sdp_util.o:_sdp_traversal_attribute_by_id
                  0x0150f2                  sdp_util.o:_sdp_traversal_contains_UUID128
                  0x013ef6                  sdp_util.o:_sdp_traversal_filter_attributes
                  0x015e64                  sdp_util.o:_sdp_traversal_get_filtered_size
                  0x014eda                  sdp_util.o:_sdp_traversal_set_attribute_for_id

Memory Configuration

Name             Origin             Length             Attributes
data             0x000800           0x017800           a !xr
app_ivt          0x005000           0x000110  
program          0x005110           0x0255f0           xr
*default*        0x000000           0xffffffff  

Linker script and memory map

LOAD build/IOIO0023/production/_ext/1270477542/logging.o
LOAD build/IOIO0023/production/_ext/1537399865/uart2.o
LOAD build/IOIO0023/production/adc.o
LOAD build/IOIO0023/production/byte_queue.o
LOAD build/IOIO0023/production/digital.o
LOAD build/IOIO0023/production/features.o
LOAD build/IOIO0023/production/i2c.o
LOAD build/IOIO0023/production/icsp.o
LOAD build/IOIO0023/production/incap.o
LOAD build/IOIO0023/production/main.o
LOAD build/IOIO0023/production/pins.o
LOAD build/IOIO0023/production/protocol.o
LOAD build/IOIO0023/production/pwm.o
LOAD build/IOIO0023/production/spi.o
LOAD build/IOIO0023/production/timers.o
LOAD build/IOIO0023/production/uart.o
LOAD build/IOIO0023/production/rgb_led_matrix.o
LOAD build/IOIO0023/production/pixel.o
LOAD ../libusb/dist/PIC24FJ256DA206_ADB/production/libusb.a
LOAD ../libadb/dist/PIC24FJ256DA206/production/libadb.a
LOAD ../libbtstack/dist/PIC24FJ256DA206/production/libbtstack.a
LOAD ../libconn/dist/PIC24FJ256DA206/production/libconn.a
LOAD ../libsdcard.X/dist/PIC24FJ256DA206/production/libsdcard.X.a
                    0x0001                  __MPLAB_BUILD = 0x1
LOAD ../libconn/dist/PIC24FJ256DA206/production/libconn.a
LOAD ../libadb/dist/PIC24FJ256DA206/production/libadb.a
LOAD ../libusb/dist/PIC24FJ256DA206/production/libusb.a
LOAD ../libbtstack/dist/PIC24FJ256DA206/production/libbtstack.a
LOAD /Applications/microchip/mplabc30/v3.30c/bin/bin/../../lib/PIC24F/libpPIC24Fxxx-coff.a
                    0x5110                  __CODE_BASE = 0x5110
                    0x5000                  __APP_IVT_BASE = 0x5000
                    0x4f80                  __BLAPI_BASE = 0x4f80
                    0x4f80                  _hardware_version = (__BLAPI_BASE + 0x0)
                    0x4f88                  _bootloader_version = (__BLAPI_BASE + 0x8)
                    0x0800                  __DATA_BASE = 0x800
                    0x1ffe                  __BOOTDATA_BASE = 0x1ffe

.text             0x005110       0x11e2
 *(.init)
 .init            0x005110         0x2e /Applications/microchip/mplabc30/v3.30c/bin/bin/../../lib/libpic30-coff.a(crt0_extended.o)
                  0x005110                  _reset
                  0x005110                  _resetPRI
                  0x005132                  _psv_init
 .init            0x00513e         0x9a /Applications/microchip/mplabc30/v3.30c/bin/bin/../../lib/libpic30-coff.a(data_init_extended.o)
                  0x00513e                  _data_init_extended
                  0x00513e                  _data_init
 *(.user_init)
 *(.handle)
 .handle          0x0051d8        0x1b8 jump_table
 *(.libc)
 .libc            0x005390         0x36 /Applications/microchip/mplabc30/v3.30c/bin/bin/../../lib/libpic30-coff.a(memcpy_helper.o)
                  0x005390                  _memcpy_helper
 .libc            0x0053c6          0xc /Applications/microchip/mplabc30/v3.30c/bin/bin/../../lib/libm-coff.a(mulsi3.o)
                  0x0053c6                  __mulp32eds3
                  0x0053c6                  __mulp32peds3
                  0x0053c6                  __mulsi3
 .libc            0x0053d2          0xe /Applications/microchip/mplabc30/v3.30c/bin/bin/../../lib/libc-coff.a(toupper.XXo)
                  0x0053d2                  toupper
 .libc            0x0053e0          0xe /Applications/microchip/mplabc30/v3.30c/bin/bin/../../lib/libc-coff.a(tolower.XXo)
                  0x0053e0                  tolower
 .libc            0x0053ee         0x2c /Applications/microchip/mplabc30/v3.30c/bin/bin/../../lib/libpic30-coff.a(sbrk.o)
                  0x0053ee                  sbrk
 .libc            0x00541a         0x6e /Applications/microchip/mplabc30/v3.30c/bin/bin/../../lib/libpic30-coff.a(write.o)
                  0x00541a                  write
 .libc            0x005488         0x1e /Applications/microchip/mplabc30/v3.30c/bin/bin/../../lib/libpic30-coff.a(brk.o)
                  0x005488                  brk
 *(.libm)
 .libm            0x0054a6         0x20 /Applications/microchip/mplabc30/v3.30c/bin/bin/../../lib/libm-coff.a(udivsi3.o)
                  0x0054a6                  __udivsi3
 .libm            0x0054c6          0x6 /Applications/microchip/mplabc30/v3.30c/bin/bin/../../lib/libm-coff.a(umodsi3.o)
                  0x0054c6                  __umodsi3
 .libm            0x0054cc        0x216 /Applications/microchip/mplabc30/v3.30c/bin/bin/../../lib/libm-coff.a(divmoddi3.o)
                  0x0054f2                  __udivmoddi3
                  0x0055c0                  __udivdi3
                  0x0055ce                  __umoddi3
                  0x0055d6                  __divdi3
                  0x005610                  __moddi3
 *(.libdsp)
 *(.lib*)
 .libc.memcpy     0x0056e2          0xe /Applications/microchip/mplabc30/v3.30c/bin/bin/../../lib/libc-coff.a(memcpy.XXo)
                  0x0056e2                  memcpy
 .libc.memcmp     0x0056f0         0x34 /Applications/microchip/mplabc30/v3.30c/bin/bin/../../lib/libc-coff.a(memcmp.XXo)
                  0x0056f0                  memcmp
 .libc.memset     0x005724          0xe /Applications/microchip/mplabc30/v3.30c/bin/bin/../../lib/libc-coff.a(memset.XXo)
                  0x005724                  memset
 .libc._sprintf_cdnopuxX
                  0x005732         0x2e /Applications/microchip/mplabc30/v3.30c/bin/bin/../../lib/libc-coff.a(sprintf_cdnopuxX.XXo)
                  0x005732                  _sprintf_cdnopuxX
 .libc.strncpy    0x005760         0x2e /Applications/microchip/mplabc30/v3.30c/bin/bin/../../lib/libc-coff.a(strncpy.XXo)
                  0x005760                  strncpy
 .libc.strlen     0x00578e          0xc /Applications/microchip/mplabc30/v3.30c/bin/bin/../../lib/libc-coff.a(strlen.XXo)
                  0x00578e                  strlen
 .libc.strcpy     0x00579a         0x10 /Applications/microchip/mplabc30/v3.30c/bin/bin/../../lib/libc-coff.a(strcpy.XXo)
                  0x00579a                  strcpy
 .libc.malloc     0x0057aa        0x124 /Applications/microchip/mplabc30/v3.30c/bin/bin/../../lib/libc-coff.a(malloc.XXo)
                  0x0057aa                  malloc
 .libc.free       0x0058ce          0xc /Applications/microchip/mplabc30/v3.30c/bin/bin/../../lib/libc-coff.a(malloc.XXo)
                  0x0058ce                  free
 .libc.realloc    0x0058da         0x5a /Applications/microchip/mplabc30/v3.30c/bin/bin/../../lib/libc-coff.a(malloc.XXo)
                  0x0058da                  realloc
 .libc.strncmp    0x005934         0x22 /Applications/microchip/mplabc30/v3.30c/bin/bin/../../lib/libc-coff.a(strncmp.XXo)
                  0x005934                  strncmp
 .libc._printf_cdnopsuxX
                  0x005956          0xe /Applications/microchip/mplabc30/v3.30c/bin/bin/../../lib/libc-coff.a(printf_cdnopsuxX.XXo)
                  0x005956                  _printf_cdnopsuxX
 .libc.putchar    0x005964          0x4 /Applications/microchip/mplabc30/v3.30c/bin/bin/../../lib/libc-coff.a(putchar.XXo)
                  0x005964                  putchar
 .libc._vfprintf_cdnopsuxX
                  0x005968        0x56a /Applications/microchip/mplabc30/v3.30c/bin/bin/../../lib/libc-coff.a(doprnt_cdnopsuxX.XXo)
                  0x005968                  _vfprintf_cdnopuxX
                  0x005968                  _vfprintf_cdnopsuxX
 .libc.fputc      0x005ed2         0x8e /Applications/microchip/mplabc30/v3.30c/bin/bin/../../lib/libc-coff.a(fputc.XXo)
                  0x005ed2                  fputc
 .libc._flsbuf    0x005f60         0x86 /Applications/microchip/mplabc30/v3.30c/bin/bin/../../lib/libc-coff.a(flsbuf.XXo)
                  0x005f60                  _flsbuf
 *(.isr*)
 .isr.._USB1Interrupt
                  0x005fe6        0x308 ../libusb/dist/PIC24FJ256DA206/production/libusb.a(usb_host.o)
                  0x005fe6                  _USB1Interrupt
 .isr             0x0062ee          0x4 default_isr
                  0x0062ee                  _DefaultInterrupt

reserved_bootloader
                    0x1ffe          0x2
                    0x2000                  . = (. + 0x2)
 *fill*             0x1ffe          0x200

.comment
 *(.comment)

.debug_info
 *(.debug_info)
 *(.gnu.linkonce.wi.*)

.debug_abbrev
 *(.debug_abbrev)

.debug_line
 *(.debug_line)

.debug_frame
 *(.debug_frame)

.debug_str
 *(.debug_str)

.debug_loc
 *(.debug_loc)

.debug_macinfo
 *(.debug_macinfo)

.debug_pubnames
 *(.debug_pubnames)

.debug_ranges
 *(.debug_ranges)

.debug_aranges
 *(.debug_aranges)

.application_ivt
                  0x005000        0x110
                  0x005000          0x2 SHORT 0x5110 ABSOLUTE (__reset)
                  0x005001          0x2 SHORT 0x4
                  0x005002          0x2 SHORT 0x0 ((ABSOLUTE (__reset) >> 0x10) & 0x7f)
                  0x005003          0x2 SHORT 0x0
                  0x005004                  __DEFAULT_VECTOR = .
                  0x005004          0x2 SHORT 0x62ee DEFINED (__DefaultInterrupt)?ABSOLUTE (__DefaultInterrupt):ABSOLUTE (__DefaultInterrupt)
                  0x005005          0x2 SHORT 0x4
                  0x005006          0x2 SHORT 0x0 DEFINED (__DefaultInterrupt)?((ABSOLUTE (__DefaultInterrupt) >> 0x10) & 0x7f):((ABSOLUTE (__DefaultInterrupt) >> 0x10) & 0x7f)
                  0x005007          0x2 SHORT 0x0
                  0x005008          0x2 SHORT 0x62ee DEFINED (__OscillatorFail)?ABSOLUTE (__OscillatorFail):ABSOLUTE (__DefaultInterrupt)
                  0x005009          0x2 SHORT 0x4
                  0x00500a          0x2 SHORT 0x0 DEFINED (__OscillatorFail)?((ABSOLUTE (__OscillatorFail) >> 0x10) & 0x7f):((ABSOLUTE (__DefaultInterrupt) >> 0x10) & 0x7f)
                  0x00500b          0x2 SHORT 0x0
                  0x00500c          0x2 SHORT 0x62ee DEFINED (__AddressError)?ABSOLUTE (__AddressError):ABSOLUTE (__DefaultInterrupt)
                  0x00500d          0x2 SHORT 0x4
                  0x00500e          0x2 SHORT 0x0 DEFINED (__AddressError)?((ABSOLUTE (__AddressError) >> 0x10) & 0x7f):((ABSOLUTE (__DefaultInterrupt) >> 0x10) & 0x7f)
                  0x00500f          0x2 SHORT 0x0
                  0x005010          0x2 SHORT 0x62ee DEFINED (__StackError)?ABSOLUTE (__StackError):ABSOLUTE (__DefaultInterrupt)
                  0x005011          0x2 SHORT 0x4
                  0x005012          0x2 SHORT 0x0 DEFINED (__StackError)?((ABSOLUTE (__StackError) >> 0x10) & 0x7f):((ABSOLUTE (__DefaultInterrupt) >> 0x10) & 0x7f)
                  0x005013          0x2 SHORT 0x0
                  0x005014          0x2 SHORT 0x62ee DEFINED (__MathError)?ABSOLUTE (__MathError):ABSOLUTE (__DefaultInterrupt)
                  0x005015          0x2 SHORT 0x4
                  0x005016          0x2 SHORT 0x0 DEFINED (__MathError)?((ABSOLUTE (__MathError) >> 0x10) & 0x7f):((ABSOLUTE (__DefaultInterrupt) >> 0x10) & 0x7f)
                  0x005017          0x2 SHORT 0x0
                  0x005018          0x2 SHORT 0x62ee DEFINED (__INT0Interrupt)?ABSOLUTE (__INT0Interrupt):ABSOLUTE (__DefaultInterrupt)
                  0x005019          0x2 SHORT 0x4
                  0x00501a          0x2 SHORT 0x0 DEFINED (__INT0Interrupt)?((ABSOLUTE (__INT0Interrupt) >> 0x10) & 0x7f):((ABSOLUTE (__DefaultInterrupt) >> 0x10) & 0x7f)
                  0x00501b          0x2 SHORT 0x0
                  0x00501c          0x2 SHORT 0xeabe DEFINED (__IC1Interrupt)?ABSOLUTE (__IC1Interrupt):ABSOLUTE (__DefaultInterrupt)
                  0x00501d          0x2 SHORT 0x4
                  0x00501e          0x2 SHORT 0x0 DEFINED (__IC1Interrupt)?((ABSOLUTE (__IC1Interrupt) >> 0x10) & 0x7f):((ABSOLUTE (__DefaultInterrupt) >> 0x10) & 0x7f)
                  0x00501f          0x2 SHORT 0x0
                  0x005020          0x2 SHORT 0x62ee DEFINED (__OC1Interrupt)?ABSOLUTE (__OC1Interrupt):ABSOLUTE (__DefaultInterrupt)
                  0x005021          0x2 SHORT 0x4
                  0x005022          0x2 SHORT 0x0 DEFINED (__OC1Interrupt)?((ABSOLUTE (__OC1Interrupt) >> 0x10) & 0x7f):((ABSOLUTE (__DefaultInterrupt) >> 0x10) & 0x7f)
                  0x005023          0x2 SHORT 0x0
                  0x005024          0x2 SHORT 0x62ee DEFINED (__T1Interrupt)?ABSOLUTE (__T1Interrupt):ABSOLUTE (__DefaultInterrupt)
                  0x005025          0x2 SHORT 0x4
                  0x005026          0x2 SHORT 0x0 DEFINED (__T1Interrupt)?((ABSOLUTE (__T1Interrupt) >> 0x10) & 0x7f):((ABSOLUTE (__DefaultInterrupt) >> 0x10) & 0x7f)
                  0x005027          0x2 SHORT 0x0
                  0x005028          0x2 SHORT 0xea9c DEFINED (__IC2Interrupt)?ABSOLUTE (__IC2Interrupt):ABSOLUTE (__DefaultInterrupt)
                  0x005029          0x2 SHORT 0x4
                  0x00502a          0x2 SHORT 0x0 DEFINED (__IC2Interrupt)?((ABSOLUTE (__IC2Interrupt) >> 0x10) & 0x7f):((ABSOLUTE (__DefaultInterrupt) >> 0x10) & 0x7f)
                  0x00502b          0x2 SHORT 0x0
                  0x00502c          0x2 SHORT 0x62ee DEFINED (__OC2Interrupt)?ABSOLUTE (__OC2Interrupt):ABSOLUTE (__DefaultInterrupt)
                  0x00502d          0x2 SHORT 0x4
                  0x00502e          0x2 SHORT 0x0 DEFINED (__OC2Interrupt)?((ABSOLUTE (__OC2Interrupt) >> 0x10) & 0x7f):((ABSOLUTE (__DefaultInterrupt) >> 0x10) & 0x7f)
                  0x00502f          0x2 SHORT 0x0
                  0x005030          0x2 SHORT 0x62ee DEFINED (__T2Interrupt)?ABSOLUTE (__T2Interrupt):ABSOLUTE (__DefaultInterrupt)
                  0x005031          0x2 SHORT 0x4
                  0x005032          0x2 SHORT 0x0 DEFINED (__T2Interrupt)?((ABSOLUTE (__T2Interrupt) >> 0x10) & 0x7f):((ABSOLUTE (__DefaultInterrupt) >> 0x10) & 0x7f)
                  0x005033          0x2 SHORT 0x0
                  0x005034          0x2 SHORT 0x10fe6 DEFINED (__T3Interrupt)?ABSOLUTE (__T3Interrupt):ABSOLUTE (__DefaultInterrupt)
                  0x005035          0x2 SHORT 0x4
                  0x005036          0x2 SHORT 0x1 DEFINED (__T3Interrupt)?((ABSOLUTE (__T3Interrupt) >> 0x10) & 0x7f):((ABSOLUTE (__DefaultInterrupt) >> 0x10) & 0x7f)
                  0x005037          0x2 SHORT 0x0
                  0x005038          0x2 SHORT 0x62ee DEFINED (__SPI1ErrInterrupt)?ABSOLUTE (__SPI1ErrInterrupt):ABSOLUTE (__DefaultInterrupt)
                  0x005039          0x2 SHORT 0x4
                  0x00503a          0x2 SHORT 0x0 DEFINED (__SPI1ErrInterrupt)?((ABSOLUTE (__SPI1ErrInterrupt) >> 0x10) & 0x7f):((ABSOLUTE (__DefaultInterrupt) >> 0x10) & 0x7f)
                  0x00503b          0x2 SHORT 0x0
                  0x00503c          0x2 SHORT 0xdc74 DEFINED (__SPI1Interrupt)?ABSOLUTE (__SPI1Interrupt):ABSOLUTE (__DefaultInterrupt)
                  0x00503d          0x2 SHORT 0x4
                  0x00503e          0x2 SHORT 0x0 DEFINED (__SPI1Interrupt)?((ABSOLUTE (__SPI1Interrupt) >> 0x10) & 0x7f):((ABSOLUTE (__DefaultInterrupt) >> 0x10) & 0x7f)
                  0x00503f          0x2 SHORT 0x0
                  0x005040          0x2 SHORT 0xe5b8 DEFINED (__U1RXInterrupt)?ABSOLUTE (__U1RXInterrupt):ABSOLUTE (__DefaultInterrupt)
                  0x005041          0x2 SHORT 0x4
                  0x005042          0x2 SHORT 0x0 DEFINED (__U1RXInterrupt)?((ABSOLUTE (__U1RXInterrupt) >> 0x10) & 0x7f):((ABSOLUTE (__DefaultInterrupt) >> 0x10) & 0x7f)
                  0x005043          0x2 SHORT 0x0
                  0x005044          0x2 SHORT 0xe440 DEFINED (__U1TXInterrupt)?ABSOLUTE (__U1TXInterrupt):ABSOLUTE (__DefaultInterrupt)
                  0x005045          0x2 SHORT 0x4
                  0x005046          0x2 SHORT 0x0 DEFINED (__U1TXInterrupt)?((ABSOLUTE (__U1TXInterrupt) >> 0x10) & 0x7f):((ABSOLUTE (__DefaultInterrupt) >> 0x10) & 0x7f)
                  0x005047          0x2 SHORT 0x0
                  0x005048          0x2 SHORT 0x11106 DEFINED (__ADC1Interrupt)?ABSOLUTE (__ADC1Interrupt):ABSOLUTE (__DefaultInterrupt)
                  0x005049          0x2 SHORT 0x4
                  0x00504a          0x2 SHORT 0x1 DEFINED (__ADC1Interrupt)?((ABSOLUTE (__ADC1Interrupt) >> 0x10) & 0x7f):((ABSOLUTE (__DefaultInterrupt) >> 0x10) & 0x7f)
                  0x00504b          0x2 SHORT 0x0
                  0x00504c          0x2 SHORT 0x62ee DEFINED (__SI2C1Interrupt)?ABSOLUTE (__SI2C1Interrupt):ABSOLUTE (__DefaultInterrupt)
                  0x00504d          0x2 SHORT 0x4
                  0x00504e          0x2 SHORT 0x0 DEFINED (__SI2C1Interrupt)?((ABSOLUTE (__SI2C1Interrupt) >> 0x10) & 0x7f):((ABSOLUTE (__DefaultInterrupt) >> 0x10) & 0x7f)
                  0x00504f          0x2 SHORT 0x0
                  0x005050          0x2 SHORT 0xee82 DEFINED (__MI2C1Interrupt)?ABSOLUTE (__MI2C1Interrupt):ABSOLUTE (__DefaultInterrupt)
                  0x005051          0x2 SHORT 0x4
                  0x005052          0x2 SHORT 0x0 DEFINED (__MI2C1Interrupt)?((ABSOLUTE (__MI2C1Interrupt) >> 0x10) & 0x7f):((ABSOLUTE (__DefaultInterrupt) >> 0x10) & 0x7f)
                  0x005053          0x2 SHORT 0x0
                  0x005054          0x2 SHORT 0x62ee DEFINED (__CompInterrupt)?ABSOLUTE (__CompInterrupt):ABSOLUTE (__DefaultInterrupt)
                  0x005055          0x2 SHORT 0x4
                  0x005056          0x2 SHORT 0x0 DEFINED (__CompInterrupt)?((ABSOLUTE (__CompInterrupt) >> 0x10) & 0x7f):((ABSOLUTE (__DefaultInterrupt) >> 0x10) & 0x7f)
                  0x005057          0x2 SHORT 0x0
                  0x005058          0x2 SHORT 0x10e02 DEFINED (__CNInterrupt)?ABSOLUTE (__CNInterrupt):ABSOLUTE (__DefaultInterrupt)
                  0x005059          0x2 SHORT 0x4
                  0x00505a          0x2 SHORT 0x1 DEFINED (__CNInterrupt)?((ABSOLUTE (__CNInterrupt) >> 0x10) & 0x7f):((ABSOLUTE (__DefaultInterrupt) >> 0x10) & 0x7f)
                  0x00505b          0x2 SHORT 0x0
                  0x00505c          0x2 SHORT 0x62ee DEFINED (__INT1Interrupt)?ABSOLUTE (__INT1Interrupt):ABSOLUTE (__DefaultInterrupt)
                  0x00505d          0x2 SHORT 0x4
                  0x00505e          0x2 SHORT 0x0 DEFINED (__INT1Interrupt)?((ABSOLUTE (__INT1Interrupt) >> 0x10) & 0x7f):((ABSOLUTE (__DefaultInterrupt) >> 0x10) & 0x7f)
                  0x00505f          0x2 SHORT 0x0
                  0x005060          0x2 SHORT 0xe9f2 DEFINED (__IC7Interrupt)?ABSOLUTE (__IC7Interrupt):ABSOLUTE (__DefaultInterrupt)
                  0x005061          0x2 SHORT 0x4
                  0x005062          0x2 SHORT 0x0 DEFINED (__IC7Interrupt)?((ABSOLUTE (__IC7Interrupt) >> 0x10) & 0x7f):((ABSOLUTE (__DefaultInterrupt) >> 0x10) & 0x7f)
                  0x005063          0x2 SHORT 0x0
                  0x005064          0x2 SHORT 0xe9d0 DEFINED (__IC8Interrupt)?ABSOLUTE (__IC8Interrupt):ABSOLUTE (__DefaultInterrupt)
                  0x005065          0x2 SHORT 0x4
                  0x005066          0x2 SHORT 0x0 DEFINED (__IC8Interrupt)?((ABSOLUTE (__IC8Interrupt) >> 0x10) & 0x7f):((ABSOLUTE (__DefaultInterrupt) >> 0x10) & 0x7f)
                  0x005067          0x2 SHORT 0x0
                  0x005068          0x2 SHORT 0x62ee DEFINED (__OC3Interrupt)?ABSOLUTE (__OC3Interrupt):ABSOLUTE (__DefaultInterrupt)
                  0x005069          0x2 SHORT 0x4
                  0x00506a          0x2 SHORT 0x0 DEFINED (__OC3Interrupt)?((ABSOLUTE (__OC3Interrupt) >> 0x10) & 0x7f):((ABSOLUTE (__DefaultInterrupt) >> 0x10) & 0x7f)
                  0x00506b          0x2 SHORT 0x0
                  0x00506c          0x2 SHORT 0x62ee DEFINED (__OC4Interrupt)?ABSOLUTE (__OC4Interrupt):ABSOLUTE (__DefaultInterrupt)
                  0x00506d          0x2 SHORT 0x4
                  0x00506e          0x2 SHORT 0x0 DEFINED (__OC4Interrupt)?((ABSOLUTE (__OC4Interrupt) >> 0x10) & 0x7f):((ABSOLUTE (__DefaultInterrupt) >> 0x10) & 0x7f)
                  0x00506f          0x2 SHORT 0x0
                  0x005070          0x2 SHORT 0x114fe DEFINED (__T4Interrupt)?ABSOLUTE (__T4Interrupt):ABSOLUTE (__DefaultInterrupt)
                  0x005071          0x2 SHORT 0x4
                  0x005072          0x2 SHORT 0x1 DEFINED (__T4Interrupt)?((ABSOLUTE (__T4Interrupt) >> 0x10) & 0x7f):((ABSOLUTE (__DefaultInterrupt) >> 0x10) & 0x7f)
                  0x005073          0x2 SHORT 0x0
                  0x005074          0x2 SHORT 0xe864 DEFINED (__T5Interrupt)?ABSOLUTE (__T5Interrupt):ABSOLUTE (__DefaultInterrupt)
                  0x005075          0x2 SHORT 0x4
                  0x005076          0x2 SHORT 0x0 DEFINED (__T5Interrupt)?((ABSOLUTE (__T5Interrupt) >> 0x10) & 0x7f):((ABSOLUTE (__DefaultInterrupt) >> 0x10) & 0x7f)
                  0x005077          0x2 SHORT 0x0
                  0x005078          0x2 SHORT 0x62ee DEFINED (__INT2Interrupt)?ABSOLUTE (__INT2Interrupt):ABSOLUTE (__DefaultInterrupt)
                  0x005079          0x2 SHORT 0x4
                  0x00507a          0x2 SHORT 0x0 DEFINED (__INT2Interrupt)?((ABSOLUTE (__INT2Interrupt) >> 0x10) & 0x7f):((ABSOLUTE (__DefaultInterrupt) >> 0x10) & 0x7f)
                  0x00507b          0x2 SHORT 0x0
                  0x00507c          0x2 SHORT 0xe5fa DEFINED (__U2RXInterrupt)?ABSOLUTE (__U2RXInterrupt):ABSOLUTE (__DefaultInterrupt)
                  0x00507d          0x2 SHORT 0x4
                  0x00507e          0x2 SHORT 0x0 DEFINED (__U2RXInterrupt)?((ABSOLUTE (__U2RXInterrupt) >> 0x10) & 0x7f):((ABSOLUTE (__DefaultInterrupt) >> 0x10) & 0x7f)
                  0x00507f          0x2 SHORT 0x0
                  0x005080          0x2 SHORT 0xe41e DEFINED (__U2TXInterrupt)?ABSOLUTE (__U2TXInterrupt):ABSOLUTE (__DefaultInterrupt)
                  0x005081          0x2 SHORT 0x4
                  0x005082          0x2 SHORT 0x0 DEFINED (__U2TXInterrupt)?((ABSOLUTE (__U2TXInterrupt) >> 0x10) & 0x7f):((ABSOLUTE (__DefaultInterrupt) >> 0x10) & 0x7f)
                  0x005083          0x2 SHORT 0x0
                  0x005084          0x2 SHORT 0x62ee DEFINED (__SPI2ErrInterrupt)?ABSOLUTE (__SPI2ErrInterrupt):ABSOLUTE (__DefaultInterrupt)
                  0x005085          0x2 SHORT 0x4
                  0x005086          0x2 SHORT 0x0 DEFINED (__SPI2ErrInterrupt)?((ABSOLUTE (__SPI2ErrInterrupt) >> 0x10) & 0x7f):((ABSOLUTE (__DefaultInterrupt) >> 0x10) & 0x7f)
                  0x005087          0x2 SHORT 0x0
                  0x005088          0x2 SHORT 0xdc96 DEFINED (__SPI2Interrupt)?ABSOLUTE (__SPI2Interrupt):ABSOLUTE (__DefaultInterrupt)
                  0x005089          0x2 SHORT 0x4
                  0x00508a          0x2 SHORT 0x0 DEFINED (__SPI2Interrupt)?((ABSOLUTE (__SPI2Interrupt) >> 0x10) & 0x7f):((ABSOLUTE (__DefaultInterrupt) >> 0x10) & 0x7f)
                  0x00508b          0x2 SHORT 0x0
                  0x00508c          0x2 SHORT 0xea7a DEFINED (__IC3Interrupt)?ABSOLUTE (__IC3Interrupt):ABSOLUTE (__DefaultInterrupt)
                  0x00508d          0x2 SHORT 0x4
                  0x00508e          0x2 SHORT 0x0 DEFINED (__IC3Interrupt)?((ABSOLUTE (__IC3Interrupt) >> 0x10) & 0x7f):((ABSOLUTE (__DefaultInterrupt) >> 0x10) & 0x7f)
                  0x00508f          0x2 SHORT 0x0
                  0x005090          0x2 SHORT 0xea58 DEFINED (__IC4Interrupt)?ABSOLUTE (__IC4Interrupt):ABSOLUTE (__DefaultInterrupt)
                  0x005091          0x2 SHORT 0x4
                  0x005092          0x2 SHORT 0x0 DEFINED (__IC4Interrupt)?((ABSOLUTE (__IC4Interrupt) >> 0x10) & 0x7f):((ABSOLUTE (__DefaultInterrupt) >> 0x10) & 0x7f)
                  0x005093          0x2 SHORT 0x0
                  0x005094          0x2 SHORT 0xea36 DEFINED (__IC5Interrupt)?ABSOLUTE (__IC5Interrupt):ABSOLUTE (__DefaultInterrupt)
                  0x005095          0x2 SHORT 0x4
                  0x005096          0x2 SHORT 0x0 DEFINED (__IC5Interrupt)?((ABSOLUTE (__IC5Interrupt) >> 0x10) & 0x7f):((ABSOLUTE (__DefaultInterrupt) >> 0x10) & 0x7f)
                  0x005097          0x2 SHORT 0x0
                  0x005098          0x2 SHORT 0xea14 DEFINED (__IC6Interrupt)?ABSOLUTE (__IC6Interrupt):ABSOLUTE (__DefaultInterrupt)
                  0x005099          0x2 SHORT 0x4
                  0x00509a          0x2 SHORT 0x0 DEFINED (__IC6Interrupt)?((ABSOLUTE (__IC6Interrupt) >> 0x10) & 0x7f):((ABSOLUTE (__DefaultInterrupt) >> 0x10) & 0x7f)
                  0x00509b          0x2 SHORT 0x0
                  0x00509c          0x2 SHORT 0x62ee DEFINED (__OC5Interrupt)?ABSOLUTE (__OC5Interrupt):ABSOLUTE (__DefaultInterrupt)
                  0x00509d          0x2 SHORT 0x4
                  0x00509e          0x2 SHORT 0x0 DEFINED (__OC5Interrupt)?((ABSOLUTE (__OC5Interrupt) >> 0x10) & 0x7f):((ABSOLUTE (__DefaultInterrupt) >> 0x10) & 0x7f)
                  0x00509f          0x2 SHORT 0x0
                  0x0050a0          0x2 SHORT 0x62ee DEFINED (__OC6Interrupt)?ABSOLUTE (__OC6Interrupt):ABSOLUTE (__DefaultInterrupt)
                  0x0050a1          0x2 SHORT 0x4
                  0x0050a2          0x2 SHORT 0x0 DEFINED (__OC6Interrupt)?((ABSOLUTE (__OC6Interrupt) >> 0x10) & 0x7f):((ABSOLUTE (__DefaultInterrupt) >> 0x10) & 0x7f)
                  0x0050a3          0x2 SHORT 0x0
                  0x0050a4          0x2 SHORT 0x62ee DEFINED (__OC7Interrupt)?ABSOLUTE (__OC7Interrupt):ABSOLUTE (__DefaultInterrupt)
                  0x0050a5          0x2 SHORT 0x4
                  0x0050a6          0x2 SHORT 0x0 DEFINED (__OC7Interrupt)?((ABSOLUTE (__OC7Interrupt) >> 0x10) & 0x7f):((ABSOLUTE (__DefaultInterrupt) >> 0x10) & 0x7f)
                  0x0050a7          0x2 SHORT 0x0
                  0x0050a8          0x2 SHORT 0x62ee DEFINED (__OC8Interrupt)?ABSOLUTE (__OC8Interrupt):ABSOLUTE (__DefaultInterrupt)
                  0x0050a9          0x2 SHORT 0x4
                  0x0050aa          0x2 SHORT 0x0 DEFINED (__OC8Interrupt)?((ABSOLUTE (__OC8Interrupt) >> 0x10) & 0x7f):((ABSOLUTE (__DefaultInterrupt) >> 0x10) & 0x7f)
                  0x0050ab          0x2 SHORT 0x0
                  0x0050ac          0x2 SHORT 0x62ee DEFINED (__PMPInterrupt)?ABSOLUTE (__PMPInterrupt):ABSOLUTE (__DefaultInterrupt)
                  0x0050ad          0x2 SHORT 0x4
                  0x0050ae          0x2 SHORT 0x0 DEFINED (__PMPInterrupt)?((ABSOLUTE (__PMPInterrupt) >> 0x10) & 0x7f):((ABSOLUTE (__DefaultInterrupt) >> 0x10) & 0x7f)
                  0x0050af          0x2 SHORT 0x0
                  0x0050b0          0x2 SHORT 0x62ee DEFINED (__SI2C2Interrupt)?ABSOLUTE (__SI2C2Interrupt):ABSOLUTE (__DefaultInterrupt)
                  0x0050b1          0x2 SHORT 0x4
                  0x0050b2          0x2 SHORT 0x0 DEFINED (__SI2C2Interrupt)?((ABSOLUTE (__SI2C2Interrupt) >> 0x10) & 0x7f):((ABSOLUTE (__DefaultInterrupt) >> 0x10) & 0x7f)
                  0x0050b3          0x2 SHORT 0x0
                  0x0050b4          0x2 SHORT 0xeea4 DEFINED (__MI2C2Interrupt)?ABSOLUTE (__MI2C2Interrupt):ABSOLUTE (__DefaultInterrupt)
                  0x0050b5          0x2 SHORT 0x4
                  0x0050b6          0x2 SHORT 0x0 DEFINED (__MI2C2Interrupt)?((ABSOLUTE (__MI2C2Interrupt) >> 0x10) & 0x7f):((ABSOLUTE (__DefaultInterrupt) >> 0x10) & 0x7f)
                  0x0050b7          0x2 SHORT 0x0
                  0x0050b8          0x2 SHORT 0x62ee DEFINED (__INT3Interrupt)?ABSOLUTE (__INT3Interrupt):ABSOLUTE (__DefaultInterrupt)
                  0x0050b9          0x2 SHORT 0x4
                  0x0050ba          0x2 SHORT 0x0 DEFINED (__INT3Interrupt)?((ABSOLUTE (__INT3Interrupt) >> 0x10) & 0x7f):((ABSOLUTE (__DefaultInterrupt) >> 0x10) & 0x7f)
                  0x0050bb          0x2 SHORT 0x0
                  0x0050bc          0x2 SHORT 0x62ee DEFINED (__INT4Interrupt)?ABSOLUTE (__INT4Interrupt):ABSOLUTE (__DefaultInterrupt)
                  0x0050bd          0x2 SHORT 0x4
                  0x0050be          0x2 SHORT 0x0 DEFINED (__INT4Interrupt)?((ABSOLUTE (__INT4Interrupt) >> 0x10) & 0x7f):((ABSOLUTE (__DefaultInterrupt) >> 0x10) & 0x7f)
                  0x0050bf          0x2 SHORT 0x0
                  0x0050c0          0x2 SHORT 0x62ee DEFINED (__RTCCInterrupt)?ABSOLUTE (__RTCCInterrupt):ABSOLUTE (__DefaultInterrupt)
                  0x0050c1          0x2 SHORT 0x4
                  0x0050c2          0x2 SHORT 0x0 DEFINED (__RTCCInterrupt)?((ABSOLUTE (__RTCCInterrupt) >> 0x10) & 0x7f):((ABSOLUTE (__DefaultInterrupt) >> 0x10) & 0x7f)
                  0x0050c3          0x2 SHORT 0x0
                  0x0050c4          0x2 SHORT 0x62ee DEFINED (__U1ErrInterrupt)?ABSOLUTE (__U1ErrInterrupt):ABSOLUTE (__DefaultInterrupt)
                  0x0050c5          0x2 SHORT 0x4
                  0x0050c6          0x2 SHORT 0x0 DEFINED (__U1ErrInterrupt)?((ABSOLUTE (__U1ErrInterrupt) >> 0x10) & 0x7f):((ABSOLUTE (__DefaultInterrupt) >> 0x10) & 0x7f)
                  0x0050c7          0x2 SHORT 0x0
                  0x0050c8          0x2 SHORT 0x62ee DEFINED (__U2ErrInterrupt)?ABSOLUTE (__U2ErrInterrupt):ABSOLUTE (__DefaultInterrupt)
                  0x0050c9          0x2 SHORT 0x4
                  0x0050ca          0x2 SHORT 0x0 DEFINED (__U2ErrInterrupt)?((ABSOLUTE (__U2ErrInterrupt) >> 0x10) & 0x7f):((ABSOLUTE (__DefaultInterrupt) >> 0x10) & 0x7f)
                  0x0050cb          0x2 SHORT 0x0
                  0x0050cc          0x2 SHORT 0x1107a DEFINED (__CRCInterrupt)?ABSOLUTE (__CRCInterrupt):ABSOLUTE (__DefaultInterrupt)
                  0x0050cd          0x2 SHORT 0x4
                  0x0050ce          0x2 SHORT 0x1 DEFINED (__CRCInterrupt)?((ABSOLUTE (__CRCInterrupt) >> 0x10) & 0x7f):((ABSOLUTE (__DefaultInterrupt) >> 0x10) & 0x7f)
                  0x0050cf          0x2 SHORT 0x0
                  0x0050d0          0x2 SHORT 0x62ee DEFINED (__LVDInterrupt)?ABSOLUTE (__LVDInterrupt):ABSOLUTE (__DefaultInterrupt)
                  0x0050d1          0x2 SHORT 0x4
                  0x0050d2          0x2 SHORT 0x0 DEFINED (__LVDInterrupt)?((ABSOLUTE (__LVDInterrupt) >> 0x10) & 0x7f):((ABSOLUTE (__DefaultInterrupt) >> 0x10) & 0x7f)
                  0x0050d3          0x2 SHORT 0x0
                  0x0050d4          0x2 SHORT 0x62ee DEFINED (__CTMUInterrupt)?ABSOLUTE (__CTMUInterrupt):ABSOLUTE (__DefaultInterrupt)
                  0x0050d5          0x2 SHORT 0x4
                  0x0050d6          0x2 SHORT 0x0 DEFINED (__CTMUInterrupt)?((ABSOLUTE (__CTMUInterrupt) >> 0x10) & 0x7f):((ABSOLUTE (__DefaultInterrupt) >> 0x10) & 0x7f)
                  0x0050d7          0x2 SHORT 0x0
                  0x0050d8          0x2 SHORT 0x62ee DEFINED (__U3ErrInterrupt)?ABSOLUTE (__U3ErrInterrupt):ABSOLUTE (__DefaultInterrupt)
                  0x0050d9          0x2 SHORT 0x4
                  0x0050da          0x2 SHORT 0x0 DEFINED (__U3ErrInterrupt)?((ABSOLUTE (__U3ErrInterrupt) >> 0x10) & 0x7f):((ABSOLUTE (__DefaultInterrupt) >> 0x10) & 0x7f)
                  0x0050db          0x2 SHORT 0x0
                  0x0050dc          0x2 SHORT 0xe63c DEFINED (__U3RXInterrupt)?ABSOLUTE (__U3RXInterrupt):ABSOLUTE (__DefaultInterrupt)
                  0x0050dd          0x2 SHORT 0x4
                  0x0050de          0x2 SHORT 0x0 DEFINED (__U3RXInterrupt)?((ABSOLUTE (__U3RXInterrupt) >> 0x10) & 0x7f):((ABSOLUTE (__DefaultInterrupt) >> 0x10) & 0x7f)
                  0x0050df          0x2 SHORT 0x0
                  0x0050e0          0x2 SHORT 0xe3fc DEFINED (__U3TXInterrupt)?ABSOLUTE (__U3TXInterrupt):ABSOLUTE (__DefaultInterrupt)
                  0x0050e1          0x2 SHORT 0x4
                  0x0050e2          0x2 SHORT 0x0 DEFINED (__U3TXInterrupt)?((ABSOLUTE (__U3TXInterrupt) >> 0x10) & 0x7f):((ABSOLUTE (__DefaultInterrupt) >> 0x10) & 0x7f)
                  0x0050e3          0x2 SHORT 0x0
                  0x0050e4          0x2 SHORT 0x62ee DEFINED (__SI2C3Interrupt)?ABSOLUTE (__SI2C3Interrupt):ABSOLUTE (__DefaultInterrupt)
                  0x0050e5          0x2 SHORT 0x4
                  0x0050e6          0x2 SHORT 0x0 DEFINED (__SI2C3Interrupt)?((ABSOLUTE (__SI2C3Interrupt) >> 0x10) & 0x7f):((ABSOLUTE (__DefaultInterrupt) >> 0x10) & 0x7f)
                  0x0050e7          0x2 SHORT 0x0
                  0x0050e8          0x2 SHORT 0xeec6 DEFINED (__MI2C3Interrupt)?ABSOLUTE (__MI2C3Interrupt):ABSOLUTE (__DefaultInterrupt)
                  0x0050e9          0x2 SHORT 0x4
                  0x0050ea          0x2 SHORT 0x0 DEFINED (__MI2C3Interrupt)?((ABSOLUTE (__MI2C3Interrupt) >> 0x10) & 0x7f):((ABSOLUTE (__DefaultInterrupt) >> 0x10) & 0x7f)
                  0x0050eb          0x2 SHORT 0x0
                  0x0050ec          0x2 SHORT 0x62ee DEFINED (__U4ErrInterrupt)?ABSOLUTE (__U4ErrInterrupt):ABSOLUTE (__DefaultInterrupt)
                  0x0050ed          0x2 SHORT 0x4
                  0x0050ee          0x2 SHORT 0x0 DEFINED (__U4ErrInterrupt)?((ABSOLUTE (__U4ErrInterrupt) >> 0x10) & 0x7f):((ABSOLUTE (__DefaultInterrupt) >> 0x10) & 0x7f)
                  0x0050ef          0x2 SHORT 0x0
                  0x0050f0          0x2 SHORT 0xe21a DEFINED (__U4RXInterrupt)?ABSOLUTE (__U4RXInterrupt):ABSOLUTE (__DefaultInterrupt)
                  0x0050f1          0x2 SHORT 0x4
                  0x0050f2          0x2 SHORT 0x0 DEFINED (__U4RXInterrupt)?((ABSOLUTE (__U4RXInterrupt) >> 0x10) & 0x7f):((ABSOLUTE (__DefaultInterrupt) >> 0x10) & 0x7f)
                  0x0050f3          0x2 SHORT 0x0
                  0x0050f4          0x2 SHORT 0xe3da DEFINED (__U4TXInterrupt)?ABSOLUTE (__U4TXInterrupt):ABSOLUTE (__DefaultInterrupt)
                  0x0050f5          0x2 SHORT 0x4
                  0x0050f6          0x2 SHORT 0x0 DEFINED (__U4TXInterrupt)?((ABSOLUTE (__U4TXInterrupt) >> 0x10) & 0x7f):((ABSOLUTE (__DefaultInterrupt) >> 0x10) & 0x7f)
                  0x0050f7          0x2 SHORT 0x0
                  0x0050f8          0x2 SHORT 0x62ee DEFINED (__SPI3ErrInterrupt)?ABSOLUTE (__SPI3ErrInterrupt):ABSOLUTE (__DefaultInterrupt)
                  0x0050f9          0x2 SHORT 0x4
                  0x0050fa          0x2 SHORT 0x0 DEFINED (__SPI3ErrInterrupt)?((ABSOLUTE (__SPI3ErrInterrupt) >> 0x10) & 0x7f):((ABSOLUTE (__DefaultInterrupt) >> 0x10) & 0x7f)
                  0x0050fb          0x2 SHORT 0x0
                  0x0050fc          0x2 SHORT 0xdcb8 DEFINED (__SPI3Interrupt)?ABSOLUTE (__SPI3Interrupt):ABSOLUTE (__DefaultInterrupt)
                  0x0050fd          0x2 SHORT 0x4
                  0x0050fe          0x2 SHORT 0x0 DEFINED (__SPI3Interrupt)?((ABSOLUTE (__SPI3Interrupt) >> 0x10) & 0x7f):((ABSOLUTE (__DefaultInterrupt) >> 0x10) & 0x7f)
                  0x0050ff          0x2 SHORT 0x0
                  0x005100          0x2 SHORT 0x62ee DEFINED (__OC9Interrupt)?ABSOLUTE (__OC9Interrupt):ABSOLUTE (__DefaultInterrupt)
                  0x005101          0x2 SHORT 0x4
                  0x005102          0x2 SHORT 0x0 DEFINED (__OC9Interrupt)?((ABSOLUTE (__OC9Interrupt) >> 0x10) & 0x7f):((ABSOLUTE (__DefaultInterrupt) >> 0x10) & 0x7f)
                  0x005103          0x2 SHORT 0x0
                  0x005104          0x2 SHORT 0xe9ae DEFINED (__IC9Interrupt)?ABSOLUTE (__IC9Interrupt):ABSOLUTE (__DefaultInterrupt)
                  0x005105          0x2 SHORT 0x4
                  0x005106          0x2 SHORT 0x0 DEFINED (__IC9Interrupt)?((ABSOLUTE (__IC9Interrupt) >> 0x10) & 0x7f):((ABSOLUTE (__DefaultInterrupt) >> 0x10) & 0x7f)
                  0x005107          0x2 SHORT 0x0
                  0x005108          0x2 SHORT 0x62ee DEFINED (__GFX1Interrupt)?ABSOLUTE (__GFX1Interrupt):ABSOLUTE (__DefaultInterrupt)
                  0x005109          0x2 SHORT 0x4
                  0x00510a          0x2 SHORT 0x0 DEFINED (__GFX1Interrupt)?((ABSOLUTE (__GFX1Interrupt) >> 0x10) & 0x7f):((ABSOLUTE (__DefaultInterrupt) >> 0x10) & 0x7f)
                  0x00510b          0x2 SHORT 0x0
                  0x00510c          0x2 SHORT 0x5fe6 DEFINED (__USB1Interrupt)?ABSOLUTE (__USB1Interrupt):ABSOLUTE (__DefaultInterrupt)
                  0x00510d          0x2 SHORT 0x4
                  0x00510e          0x2 SHORT 0x0 DEFINED (__USB1Interrupt)?((ABSOLUTE (__USB1Interrupt) >> 0x10) & 0x7f):((ABSOLUTE (__DefaultInterrupt) >> 0x10) & 0x7f)
                  0x00510f          0x2 SHORT 0x0
                    0x0000                  WREG0 = 0x0
                    0x0000                  _WREG0 = 0x0
                    0x0002                  WREG1 = 0x2
                    0x0002                  _WREG1 = 0x2
                    0x0004                  WREG2 = 0x4
                    0x0004                  _WREG2 = 0x4
                    0x0006                  WREG3 = 0x6
                    0x0006                  _WREG3 = 0x6
                    0x0008                  WREG4 = 0x8
                    0x0008                  _WREG4 = 0x8
                    0x000a                  WREG5 = 0xa
                    0x000a                  _WREG5 = 0xa
                    0x000c                  WREG6 = 0xc
                    0x000c                  _WREG6 = 0xc
                    0x000e                  WREG7 = 0xe
                    0x000e                  _WREG7 = 0xe
                    0x0010                  WREG8 = 0x10
                    0x0010                  _WREG8 = 0x10
                    0x0012                  WREG9 = 0x12
                    0x0012                  _WREG9 = 0x12
                    0x0014                  WREG10 = 0x14
                    0x0014                  _WREG10 = 0x14
                    0x0016                  WREG11 = 0x16
                    0x0016                  _WREG11 = 0x16
                    0x0018                  WREG12 = 0x18
                    0x0018                  _WREG12 = 0x18
                    0x001a                  WREG13 = 0x1a
                    0x001a                  _WREG13 = 0x1a
                    0x001c                  WREG14 = 0x1c
                    0x001c                  _WREG14 = 0x1c
                    0x001e                  WREG15 = 0x1e
                    0x001e                  _WREG15 = 0x1e
                    0x0020                  SPLIM = 0x20
                    0x0020                  _SPLIM = 0x20
                    0x002e                  PCL = 0x2e
                    0x002e                  _PCL = 0x2e
                    0x0030                  PCH = 0x30
                    0x0030                  _PCH = 0x30
                    0x0032                  DSRPAG = 0x32
                    0x0032                  _DSRPAG = 0x32
                    0x0034                  DSWPAG = 0x34
                    0x0034                  _DSWPAG = 0x34
                    0x0036                  RCOUNT = 0x36
                    0x0036                  _RCOUNT = 0x36
                    0x0042                  SR = 0x42
                    0x0042                  _SR = 0x42
                    0x0042                  _SRbits = 0x42
                    0x0044                  CORCON = 0x44
                    0x0044                  _CORCON = 0x44
                    0x0044                  _CORCONbits = 0x44
                    0x0052                  DISICNT = 0x52
                    0x0052                  _DISICNT = 0x52
                    0x0054                  TBLPAG = 0x54
                    0x0054                  _TBLPAG = 0x54
                    0x0056                  CNPD1 = 0x56
                    0x0056                  _CNPD1 = 0x56
                    0x0056                  _CNPD1bits = 0x56
                    0x0058                  CNPD2 = 0x58
                    0x0058                  _CNPD2 = 0x58
                    0x0058                  _CNPD2bits = 0x58
                    0x005a                  CNPD3 = 0x5a
                    0x005a                  _CNPD3 = 0x5a
                    0x005a                  _CNPD3bits = 0x5a
                    0x005c                  CNPD4 = 0x5c
                    0x005c                  _CNPD4 = 0x5c
                    0x005c                  _CNPD4bits = 0x5c
                    0x005e                  CNPD5 = 0x5e
                    0x005e                  _CNPD5 = 0x5e
                    0x005e                  _CNPD5bits = 0x5e
                    0x0060                  CNPD6 = 0x60
                    0x0060                  _CNPD6 = 0x60
                    0x0060                  _CNPD6bits = 0x60
                    0x0062                  CNEN1 = 0x62
                    0x0062                  _CNEN1 = 0x62
                    0x0062                  _CNEN1bits = 0x62
                    0x0064                  CNEN2 = 0x64
                    0x0064                  _CNEN2 = 0x64
                    0x0064                  _CNEN2bits = 0x64
                    0x0066                  CNEN3 = 0x66
                    0x0066                  _CNEN3 = 0x66
                    0x0066                  _CNEN3bits = 0x66
                    0x0068                  CNEN4 = 0x68
                    0x0068                  _CNEN4 = 0x68
                    0x0068                  _CNEN4bits = 0x68
                    0x006a                  CNEN5 = 0x6a
                    0x006a                  _CNEN5 = 0x6a
                    0x006a                  _CNEN5bits = 0x6a
                    0x006c                  CNEN6 = 0x6c
                    0x006c                  _CNEN6 = 0x6c
                    0x006c                  _CNEN6bits = 0x6c
                    0x006e                  CNPU1 = 0x6e
                    0x006e                  _CNPU1 = 0x6e
                    0x006e                  _CNPU1bits = 0x6e
                    0x0070                  CNPU2 = 0x70
                    0x0070                  _CNPU2 = 0x70
                    0x0070                  _CNPU2bits = 0x70
                    0x0072                  CNPU3 = 0x72
                    0x0072                  _CNPU3 = 0x72
                    0x0072                  _CNPU3bits = 0x72
                    0x0074                  CNPU4 = 0x74
                    0x0074                  _CNPU4 = 0x74
                    0x0074                  _CNPU4bits = 0x74
                    0x0076                  CNPU5 = 0x76
                    0x0076                  _CNPU5 = 0x76
                    0x0076                  _CNPU5bits = 0x76
                    0x0078                  CNPU6 = 0x78
                    0x0078                  _CNPU6 = 0x78
                    0x0078                  _CNPU6bits = 0x78
                    0x0080                  INTCON1 = 0x80
                    0x0080                  _INTCON1 = 0x80
                    0x0080                  _INTCON1bits = 0x80
                    0x0082                  INTCON2 = 0x82
                    0x0082                  _INTCON2 = 0x82
                    0x0082                  _INTCON2bits = 0x82
                    0x0084                  IFS0 = 0x84
                    0x0084                  _IFS0 = 0x84
                    0x0084                  _IFS0bits = 0x84
                    0x0086                  IFS1 = 0x86
                    0x0086                  _IFS1 = 0x86
                    0x0086                  _IFS1bits = 0x86
                    0x0088                  IFS2 = 0x88
                    0x0088                  _IFS2 = 0x88
                    0x0088                  _IFS2bits = 0x88
                    0x008a                  IFS3 = 0x8a
                    0x008a                  _IFS3 = 0x8a
                    0x008a                  _IFS3bits = 0x8a
                    0x008c                  IFS4 = 0x8c
                    0x008c                  _IFS4 = 0x8c
                    0x008c                  _IFS4bits = 0x8c
                    0x008e                  IFS5 = 0x8e
                    0x008e                  _IFS5 = 0x8e
                    0x008e                  _IFS5bits = 0x8e
                    0x0090                  IFS6 = 0x90
                    0x0090                  _IFS6 = 0x90
                    0x0090                  _IFS6bits = 0x90
                    0x0094                  IEC0 = 0x94
                    0x0094                  _IEC0 = 0x94
                    0x0094                  _IEC0bits = 0x94
                    0x0096                  IEC1 = 0x96
                    0x0096                  _IEC1 = 0x96
                    0x0096                  _IEC1bits = 0x96
                    0x0098                  IEC2 = 0x98
                    0x0098                  _IEC2 = 0x98
                    0x0098                  _IEC2bits = 0x98
                    0x009a                  IEC3 = 0x9a
                    0x009a                  _IEC3 = 0x9a
                    0x009a                  _IEC3bits = 0x9a
                    0x009c                  IEC4 = 0x9c
                    0x009c                  _IEC4 = 0x9c
                    0x009c                  _IEC4bits = 0x9c
                    0x009e                  IEC5 = 0x9e
                    0x009e                  _IEC5 = 0x9e
                    0x009e                  _IEC5bits = 0x9e
                    0x00a0                  IEC6 = 0xa0
                    0x00a0                  _IEC6 = 0xa0
                    0x00a0                  _IEC6bits = 0xa0
                    0x00a4                  IPC0 = 0xa4
                    0x00a4                  _IPC0 = 0xa4
                    0x00a4                  _IPC0bits = 0xa4
                    0x00a6                  IPC1 = 0xa6
                    0x00a6                  _IPC1 = 0xa6
                    0x00a6                  _IPC1bits = 0xa6
                    0x00a8                  IPC2 = 0xa8
                    0x00a8                  _IPC2 = 0xa8
                    0x00a8                  _IPC2bits = 0xa8
                    0x00aa                  IPC3 = 0xaa
                    0x00aa                  _IPC3 = 0xaa
                    0x00aa                  _IPC3bits = 0xaa
                    0x00ac                  IPC4 = 0xac
                    0x00ac                  _IPC4 = 0xac
                    0x00ac                  _IPC4bits = 0xac
                    0x00ae                  IPC5 = 0xae
                    0x00ae                  _IPC5 = 0xae
                    0x00ae                  _IPC5bits = 0xae
                    0x00b0                  IPC6 = 0xb0
                    0x00b0                  _IPC6 = 0xb0
                    0x00b0                  _IPC6bits = 0xb0
                    0x00b2                  IPC7 = 0xb2
                    0x00b2                  _IPC7 = 0xb2
                    0x00b2                  _IPC7bits = 0xb2
                    0x00b4                  IPC8 = 0xb4
                    0x00b4                  _IPC8 = 0xb4
                    0x00b4                  _IPC8bits = 0xb4
                    0x00b6                  IPC9 = 0xb6
                    0x00b6                  _IPC9 = 0xb6
                    0x00b6                  _IPC9bits = 0xb6
                    0x00b8                  IPC10 = 0xb8
                    0x00b8                  _IPC10 = 0xb8
                    0x00b8                  _IPC10bits = 0xb8
                    0x00ba                  IPC11 = 0xba
                    0x00ba                  _IPC11 = 0xba
                    0x00ba                  _IPC11bits = 0xba
                    0x00bc                  IPC12 = 0xbc
                    0x00bc                  _IPC12 = 0xbc
                    0x00bc                  _IPC12bits = 0xbc
                    0x00be                  IPC13 = 0xbe
                    0x00be                  _IPC13 = 0xbe
                    0x00be                  _IPC13bits = 0xbe
                    0x00c2                  IPC15 = 0xc2
                    0x00c2                  _IPC15 = 0xc2
                    0x00c2                  _IPC15bits = 0xc2
                    0x00c4                  IPC16 = 0xc4
                    0x00c4                  _IPC16 = 0xc4
                    0x00c4                  _IPC16bits = 0xc4
                    0x00c8                  IPC18 = 0xc8
                    0x00c8                  _IPC18 = 0xc8
                    0x00c8                  _IPC18bits = 0xc8
                    0x00ca                  IPC19 = 0xca
                    0x00ca                  _IPC19 = 0xca
                    0x00ca                  _IPC19bits = 0xca
                    0x00cc                  IPC20 = 0xcc
                    0x00cc                  _IPC20 = 0xcc
                    0x00cc                  _IPC20bits = 0xcc
                    0x00ce                  IPC21 = 0xce
                    0x00ce                  _IPC21 = 0xce
                    0x00ce                  _IPC21bits = 0xce
                    0x00d0                  IPC22 = 0xd0
                    0x00d0                  _IPC22 = 0xd0
                    0x00d0                  _IPC22bits = 0xd0
                    0x00d2                  IPC23 = 0xd2
                    0x00d2                  _IPC23 = 0xd2
                    0x00d2                  _IPC23bits = 0xd2
                    0x00d6                  IPC25 = 0xd6
                    0x00d6                  _IPC25 = 0xd6
                    0x00d6                  _IPC25bits = 0xd6
                    0x00e0                  INTTREG = 0xe0
                    0x00e0                  _INTTREG = 0xe0
                    0x00e0                  _INTTREGbits = 0xe0
                    0x0100                  TMR1 = 0x100
                    0x0100                  _TMR1 = 0x100
                    0x0102                  PR1 = 0x102
                    0x0102                  _PR1 = 0x102
                    0x0104                  T1CON = 0x104
                    0x0104                  _T1CON = 0x104
                    0x0104                  _T1CONbits = 0x104
                    0x0106                  TMR2 = 0x106
                    0x0106                  _TMR2 = 0x106
                    0x0108                  TMR3HLD = 0x108
                    0x0108                  _TMR3HLD = 0x108
                    0x010a                  TMR3 = 0x10a
                    0x010a                  _TMR3 = 0x10a
                    0x010c                  PR2 = 0x10c
                    0x010c                  _PR2 = 0x10c
                    0x010e                  PR3 = 0x10e
                    0x010e                  _PR3 = 0x10e
                    0x0110                  T2CON = 0x110
                    0x0110                  _T2CON = 0x110
                    0x0110                  _T2CONbits = 0x110
                    0x0112                  T3CON = 0x112
                    0x0112                  _T3CON = 0x112
                    0x0112                  _T3CONbits = 0x112
                    0x0114                  TMR4 = 0x114
                    0x0114                  _TMR4 = 0x114
                    0x0116                  TMR5HLD = 0x116
                    0x0116                  _TMR5HLD = 0x116
                    0x0118                  TMR5 = 0x118
                    0x0118                  _TMR5 = 0x118
                    0x011a                  PR4 = 0x11a
                    0x011a                  _PR4 = 0x11a
                    0x011c                  PR5 = 0x11c
                    0x011c                  _PR5 = 0x11c
                    0x011e                  T4CON = 0x11e
                    0x011e                  _T4CON = 0x11e
                    0x011e                  _T4CONbits = 0x11e
                    0x0120                  T5CON = 0x120
                    0x0120                  _T5CON = 0x120
                    0x0120                  _T5CONbits = 0x120
                    0x0140                  IC1CON1 = 0x140
                    0x0140                  _IC1CON1 = 0x140
                    0x0140                  _IC1CON1bits = 0x140
                    0x0142                  IC1CON2 = 0x142
                    0x0142                  _IC1CON2 = 0x142
                    0x0142                  _IC1CON2bits = 0x142
                    0x0144                  IC1BUF = 0x144
                    0x0144                  _IC1BUF = 0x144
                    0x0146                  IC1TMR = 0x146
                    0x0146                  _IC1TMR = 0x146
                    0x0148                  IC2CON1 = 0x148
                    0x0148                  _IC2CON1 = 0x148
                    0x0148                  _IC2CON1bits = 0x148
                    0x014a                  IC2CON2 = 0x14a
                    0x014a                  _IC2CON2 = 0x14a
                    0x014a                  _IC2CON2bits = 0x14a
                    0x014c                  IC2BUF = 0x14c
                    0x014c                  _IC2BUF = 0x14c
                    0x014e                  IC2TMR = 0x14e
                    0x014e                  _IC2TMR = 0x14e
                    0x0150                  IC3CON1 = 0x150
                    0x0150                  _IC3CON1 = 0x150
                    0x0150                  _IC3CON1bits = 0x150
                    0x0152                  IC3CON2 = 0x152
                    0x0152                  _IC3CON2 = 0x152
                    0x0152                  _IC3CON2bits = 0x152
                    0x0154                  IC3BUF = 0x154
                    0x0154                  _IC3BUF = 0x154
                    0x0156                  IC3TMR = 0x156
                    0x0156                  _IC3TMR = 0x156
                    0x0158                  IC4CON1 = 0x158
                    0x0158                  _IC4CON1 = 0x158
                    0x0158                  _IC4CON1bits = 0x158
                    0x015a                  IC4CON2 = 0x15a
                    0x015a                  _IC4CON2 = 0x15a
                    0x015a                  _IC4CON2bits = 0x15a
                    0x015c                  IC4BUF = 0x15c
                    0x015c                  _IC4BUF = 0x15c
                    0x015e                  IC4TMR = 0x15e
                    0x015e                  _IC4TMR = 0x15e
                    0x0160                  IC5CON1 = 0x160
                    0x0160                  _IC5CON1 = 0x160
                    0x0160                  _IC5CON1bits = 0x160
                    0x0162                  IC5CON2 = 0x162
                    0x0162                  _IC5CON2 = 0x162
                    0x0162                  _IC5CON2bits = 0x162
                    0x0164                  IC5BUF = 0x164
                    0x0164                  _IC5BUF = 0x164
                    0x0166                  IC5TMR = 0x166
                    0x0166                  _IC5TMR = 0x166
                    0x0168                  IC6CON1 = 0x168
                    0x0168                  _IC6CON1 = 0x168
                    0x0168                  _IC6CON1bits = 0x168
                    0x016a                  IC6CON2 = 0x16a
                    0x016a                  _IC6CON2 = 0x16a
                    0x016a                  _IC6CON2bits = 0x16a
                    0x016c                  IC6BUF = 0x16c
                    0x016c                  _IC6BUF = 0x16c
                    0x016e                  IC6TMR = 0x16e
                    0x016e                  _IC6TMR = 0x16e
                    0x0170                  IC7CON1 = 0x170
                    0x0170                  _IC7CON1 = 0x170
                    0x0170                  _IC7CON1bits = 0x170
                    0x0172                  IC7CON2 = 0x172
                    0x0172                  _IC7CON2 = 0x172
                    0x0172                  _IC7CON2bits = 0x172
                    0x0174                  IC7BUF = 0x174
                    0x0174                  _IC7BUF = 0x174
                    0x0176                  IC7TMR = 0x176
                    0x0176                  _IC7TMR = 0x176
                    0x0178                  IC8CON1 = 0x178
                    0x0178                  _IC8CON1 = 0x178
                    0x0178                  _IC8CON1bits = 0x178
                    0x017a                  IC8CON2 = 0x17a
                    0x017a                  _IC8CON2 = 0x17a
                    0x017a                  _IC8CON2bits = 0x17a
                    0x017c                  IC8BUF = 0x17c
                    0x017c                  _IC8BUF = 0x17c
                    0x017e                  IC8TMR = 0x17e
                    0x017e                  _IC8TMR = 0x17e
                    0x0180                  IC9CON1 = 0x180
                    0x0180                  _IC9CON1 = 0x180
                    0x0180                  _IC9CON1bits = 0x180
                    0x0182                  IC9CON2 = 0x182
                    0x0182                  _IC9CON2 = 0x182
                    0x0182                  _IC9CON2bits = 0x182
                    0x0184                  IC9BUF = 0x184
                    0x0184                  _IC9BUF = 0x184
                    0x0186                  IC9TMR = 0x186
                    0x0186                  _IC9TMR = 0x186
                    0x0190                  OC1CON1 = 0x190
                    0x0190                  _OC1CON1 = 0x190
                    0x0190                  _OC1CON1bits = 0x190
                    0x0192                  OC1CON2 = 0x192
                    0x0192                  _OC1CON2 = 0x192
                    0x0192                  _OC1CON2bits = 0x192
                    0x0194                  OC1RS = 0x194
                    0x0194                  _OC1RS = 0x194
                    0x0196                  OC1R = 0x196
                    0x0196                  _OC1R = 0x196
                    0x0198                  OC1TMR = 0x198
                    0x0198                  _OC1TMR = 0x198
                    0x019a                  OC2CON1 = 0x19a
                    0x019a                  _OC2CON1 = 0x19a
                    0x019a                  _OC2CON1bits = 0x19a
                    0x019c                  OC2CON2 = 0x19c
                    0x019c                  _OC2CON2 = 0x19c
                    0x019c                  _OC2CON2bits = 0x19c
                    0x019e                  OC2RS = 0x19e
                    0x019e                  _OC2RS = 0x19e
                    0x01a0                  OC2R = 0x1a0
                    0x01a0                  _OC2R = 0x1a0
                    0x01a2                  OC2TMR = 0x1a2
                    0x01a2                  _OC2TMR = 0x1a2
                    0x01a4                  OC3CON1 = 0x1a4
                    0x01a4                  _OC3CON1 = 0x1a4
                    0x01a4                  _OC3CON1bits = 0x1a4
                    0x01a6                  OC3CON2 = 0x1a6
                    0x01a6                  _OC3CON2 = 0x1a6
                    0x01a6                  _OC3CON2bits = 0x1a6
                    0x01a8                  OC3RS = 0x1a8
                    0x01a8                  _OC3RS = 0x1a8
                    0x01aa                  OC3R = 0x1aa
                    0x01aa                  _OC3R = 0x1aa
                    0x01ac                  OC3TMR = 0x1ac
                    0x01ac                  _OC3TMR = 0x1ac
                    0x01ae                  OC4CON1 = 0x1ae
                    0x01ae                  _OC4CON1 = 0x1ae
                    0x01ae                  _OC4CON1bits = 0x1ae
                    0x01b0                  OC4CON2 = 0x1b0
                    0x01b0                  _OC4CON2 = 0x1b0
                    0x01b0                  _OC4CON2bits = 0x1b0
                    0x01b2                  OC4RS = 0x1b2
                    0x01b2                  _OC4RS = 0x1b2
                    0x01b4                  OC4R = 0x1b4
                    0x01b4                  _OC4R = 0x1b4
                    0x01b6                  OC4TMR = 0x1b6
                    0x01b6                  _OC4TMR = 0x1b6
                    0x01b8                  OC5CON1 = 0x1b8
                    0x01b8                  _OC5CON1 = 0x1b8
                    0x01b8                  _OC5CON1bits = 0x1b8
                    0x01ba                  OC5CON2 = 0x1ba
                    0x01ba                  _OC5CON2 = 0x1ba
                    0x01ba                  _OC5CON2bits = 0x1ba
                    0x01bc                  OC5RS = 0x1bc
                    0x01bc                  _OC5RS = 0x1bc
                    0x01be                  OC5R = 0x1be
                    0x01be                  _OC5R = 0x1be
                    0x01c0                  OC5TMR = 0x1c0
                    0x01c0                  _OC5TMR = 0x1c0
                    0x01c2                  OC6CON1 = 0x1c2
                    0x01c2                  _OC6CON1 = 0x1c2
                    0x01c2                  _OC6CON1bits = 0x1c2
                    0x01c4                  OC6CON2 = 0x1c4
                    0x01c4                  _OC6CON2 = 0x1c4
                    0x01c4                  _OC6CON2bits = 0x1c4
                    0x01c6                  OC6RS = 0x1c6
                    0x01c6                  _OC6RS = 0x1c6
                    0x01c8                  OC6R = 0x1c8
                    0x01c8                  _OC6R = 0x1c8
                    0x01ca                  OC6TMR = 0x1ca
                    0x01ca                  _OC6TMR = 0x1ca
                    0x01cc                  OC7CON1 = 0x1cc
                    0x01cc                  _OC7CON1 = 0x1cc
                    0x01cc                  _OC7CON1bits = 0x1cc
                    0x01ce                  OC7CON2 = 0x1ce
                    0x01ce                  _OC7CON2 = 0x1ce
                    0x01ce                  _OC7CON2bits = 0x1ce
                    0x01d0                  OC7RS = 0x1d0
                    0x01d0                  _OC7RS = 0x1d0
                    0x01d2                  OC7R = 0x1d2
                    0x01d2                  _OC7R = 0x1d2
                    0x01d4                  OC7TMR = 0x1d4
                    0x01d4                  _OC7TMR = 0x1d4
                    0x01d6                  OC8CON1 = 0x1d6
                    0x01d6                  _OC8CON1 = 0x1d6
                    0x01d6                  _OC8CON1bits = 0x1d6
                    0x01d8                  OC8CON2 = 0x1d8
                    0x01d8                  _OC8CON2 = 0x1d8
                    0x01d8                  _OC8CON2bits = 0x1d8
                    0x01da                  OC8RS = 0x1da
                    0x01da                  _OC8RS = 0x1da
                    0x01dc                  OC8R = 0x1dc
                    0x01dc                  _OC8R = 0x1dc
                    0x01de                  OC8TMR = 0x1de
                    0x01de                  _OC8TMR = 0x1de
                    0x01e0                  OC9CON1 = 0x1e0
                    0x01e0                  _OC9CON1 = 0x1e0
                    0x01e0                  _OC9CON1bits = 0x1e0
                    0x01e2                  OC9CON2 = 0x1e2
                    0x01e2                  _OC9CON2 = 0x1e2
                    0x01e2                  _OC9CON2bits = 0x1e2
                    0x01e4                  OC9RS = 0x1e4
                    0x01e4                  _OC9RS = 0x1e4
                    0x01e6                  OC9R = 0x1e6
                    0x01e6                  _OC9R = 0x1e6
                    0x01e8                  OC9TMR = 0x1e8
                    0x01e8                  _OC9TMR = 0x1e8
                    0x0200                  I2C1RCV = 0x200
                    0x0200                  _I2C1RCV = 0x200
                    0x0202                  I2C1TRN = 0x202
                    0x0202                  _I2C1TRN = 0x202
                    0x0204                  I2C1BRG = 0x204
                    0x0204                  _I2C1BRG = 0x204
                    0x0206                  I2C1CON = 0x206
                    0x0206                  _I2C1CON = 0x206
                    0x0206                  _I2C1CONbits = 0x206
                    0x0208                  I2C1STAT = 0x208
                    0x0208                  _I2C1STAT = 0x208
                    0x0208                  _I2C1STATbits = 0x208
                    0x020a                  I2C1ADD = 0x20a
                    0x020a                  _I2C1ADD = 0x20a
                    0x020c                  I2C1MSK = 0x20c
                    0x020c                  _I2C1MSK = 0x20c
                    0x0210                  I2C2RCV = 0x210
                    0x0210                  _I2C2RCV = 0x210
                    0x0212                  I2C2TRN = 0x212
                    0x0212                  _I2C2TRN = 0x212
                    0x0214                  I2C2BRG = 0x214
                    0x0214                  _I2C2BRG = 0x214
                    0x0216                  I2C2CON = 0x216
                    0x0216                  _I2C2CON = 0x216
                    0x0216                  _I2C2CONbits = 0x216
                    0x0218                  I2C2STAT = 0x218
                    0x0218                  _I2C2STAT = 0x218
                    0x0218                  _I2C2STATbits = 0x218
                    0x021a                  I2C2ADD = 0x21a
                    0x021a                  _I2C2ADD = 0x21a
                    0x021c                  I2C2MSK = 0x21c
                    0x021c                  _I2C2MSK = 0x21c
                    0x0220                  U1MODE = 0x220
                    0x0220                  _U1MODE = 0x220
                    0x0220                  _U1MODEbits = 0x220
                    0x0222                  U1STA = 0x222
                    0x0222                  _U1STA = 0x222
                    0x0222                  _U1STAbits = 0x222
                    0x0224                  U1TXREG = 0x224
                    0x0224                  _U1TXREG = 0x224
                    0x0224                  _U1TXREGbits = 0x224
                    0x0226                  U1RXREG = 0x226
                    0x0226                  _U1RXREG = 0x226
                    0x0226                  _U1RXREGbits = 0x226
                    0x0228                  U1BRG = 0x228
                    0x0228                  _U1BRG = 0x228
                    0x0230                  U2MODE = 0x230
                    0x0230                  _U2MODE = 0x230
                    0x0230                  _U2MODEbits = 0x230
                    0x0232                  U2STA = 0x232
                    0x0232                  _U2STA = 0x232
                    0x0232                  _U2STAbits = 0x232
                    0x0234                  U2TXREG = 0x234
                    0x0234                  _U2TXREG = 0x234
                    0x0234                  _U2TXREGbits = 0x234
                    0x0236                  U2RXREG = 0x236
                    0x0236                  _U2RXREG = 0x236
                    0x0236                  _U2RXREGbits = 0x236
                    0x0238                  U2BRG = 0x238
                    0x0238                  _U2BRG = 0x238
                    0x0240                  SPI1STAT = 0x240
                    0x0240                  _SPI1STAT = 0x240
                    0x0240                  _SPI1STATbits = 0x240
                    0x0242                  SPI1CON1 = 0x242
                    0x0242                  _SPI1CON1 = 0x242
                    0x0242                  _SPI1CON1bits = 0x242
                    0x0244                  SPI1CON2 = 0x244
                    0x0244                  _SPI1CON2 = 0x244
                    0x0244                  _SPI1CON2bits = 0x244
                    0x0248                  SPI1BUF = 0x248
                    0x0248                  _SPI1BUF = 0x248
                    0x0250                  U3MODE = 0x250
                    0x0250                  _U3MODE = 0x250
                    0x0250                  _U3MODEbits = 0x250
                    0x0252                  U3STA = 0x252
                    0x0252                  _U3STA = 0x252
                    0x0252                  _U3STAbits = 0x252
                    0x0254                  U3TXREG = 0x254
                    0x0254                  _U3TXREG = 0x254
                    0x0254                  _U3TXREGbits = 0x254
                    0x0256                  U3RXREG = 0x256
                    0x0256                  _U3RXREG = 0x256
                    0x0256                  _U3RXREGbits = 0x256
                    0x0258                  U3BRG = 0x258
                    0x0258                  _U3BRG = 0x258
                    0x0260                  SPI2STAT = 0x260
                    0x0260                  _SPI2STAT = 0x260
                    0x0260                  _SPI2STATbits = 0x260
                    0x0262                  SPI2CON1 = 0x262
                    0x0262                  _SPI2CON1 = 0x262
                    0x0262                  _SPI2CON1bits = 0x262
                    0x0264                  SPI2CON2 = 0x264
                    0x0264                  _SPI2CON2 = 0x264
                    0x0264                  _SPI2CON2bits = 0x264
                    0x0268                  SPI2BUF = 0x268
                    0x0268                  _SPI2BUF = 0x268
                    0x0270                  I2C3RCV = 0x270
                    0x0270                  _I2C3RCV = 0x270
                    0x0272                  I2C3TRN = 0x272
                    0x0272                  _I2C3TRN = 0x272
                    0x0274                  I2C3BRG = 0x274
                    0x0274                  _I2C3BRG = 0x274
                    0x0276                  I2C3CON = 0x276
                    0x0276                  _I2C3CON = 0x276
                    0x0276                  _I2C3CONbits = 0x276
                    0x0278                  I2C3STAT = 0x278
                    0x0278                  _I2C3STAT = 0x278
                    0x0278                  _I2C3STATbits = 0x278
                    0x027a                  I2C3ADD = 0x27a
                    0x027a                  _I2C3ADD = 0x27a
                    0x027c                  I2C3MSK = 0x27c
                    0x027c                  _I2C3MSK = 0x27c
                    0x0280                  SPI3STAT = 0x280
                    0x0280                  _SPI3STAT = 0x280
                    0x0280                  _SPI3STATbits = 0x280
                    0x0282                  SPI3CON1 = 0x282
                    0x0282                  _SPI3CON1 = 0x282
                    0x0282                  _SPI3CON1bits = 0x282
                    0x0284                  SPI3CON2 = 0x284
                    0x0284                  _SPI3CON2 = 0x284
                    0x0284                  _SPI3CON2bits = 0x284
                    0x0288                  SPI3BUF = 0x288
                    0x0288                  _SPI3BUF = 0x288
                    0x02b0                  U4MODE = 0x2b0
                    0x02b0                  _U4MODE = 0x2b0
                    0x02b0                  _U4MODEbits = 0x2b0
                    0x02b2                  U4STA = 0x2b2
                    0x02b2                  _U4STA = 0x2b2
                    0x02b2                  _U4STAbits = 0x2b2
                    0x02b4                  U4TXREG = 0x2b4
                    0x02b4                  _U4TXREG = 0x2b4
                    0x02b4                  _U4TXREGbits = 0x2b4
                    0x02b6                  U4RXREG = 0x2b6
                    0x02b6                  _U4RXREG = 0x2b6
                    0x02b6                  _U4RXREGbits = 0x2b6
                    0x02b8                  U4BRG = 0x2b8
                    0x02b8                  _U4BRG = 0x2b8
                    0x02c8                  TRISB = 0x2c8
                    0x02c8                  _TRISB = 0x2c8
                    0x02c8                  _TRISBbits = 0x2c8
                    0x02ca                  PORTB = 0x2ca
                    0x02ca                  _PORTB = 0x2ca
                    0x02ca                  _PORTBbits = 0x2ca
                    0x02cc                  LATB = 0x2cc
                    0x02cc                  _LATB = 0x2cc
                    0x02cc                  _LATBbits = 0x2cc
                    0x02ce                  ODCB = 0x2ce
                    0x02ce                  _ODCB = 0x2ce
                    0x02ce                  _ODCBbits = 0x2ce
                    0x02d0                  TRISC = 0x2d0
                    0x02d0                  _TRISC = 0x2d0
                    0x02d0                  _TRISCbits = 0x2d0
                    0x02d2                  PORTC = 0x2d2
                    0x02d2                  _PORTC = 0x2d2
                    0x02d2                  _PORTCbits = 0x2d2
                    0x02d4                  LATC = 0x2d4
                    0x02d4                  _LATC = 0x2d4
                    0x02d4                  _LATCbits = 0x2d4
                    0x02d6                  ODCC = 0x2d6
                    0x02d6                  _ODCC = 0x2d6
                    0x02d6                  _ODCCbits = 0x2d6
                    0x02d8                  TRISD = 0x2d8
                    0x02d8                  _TRISD = 0x2d8
                    0x02d8                  _TRISDbits = 0x2d8
                    0x02da                  PORTD = 0x2da
                    0x02da                  _PORTD = 0x2da
                    0x02da                  _PORTDbits = 0x2da
                    0x02dc                  LATD = 0x2dc
                    0x02dc                  _LATD = 0x2dc
                    0x02dc                  _LATDbits = 0x2dc
                    0x02de                  ODCD = 0x2de
                    0x02de                  _ODCD = 0x2de
                    0x02de                  _ODCDbits = 0x2de
                    0x02e0                  TRISE = 0x2e0
                    0x02e0                  _TRISE = 0x2e0
                    0x02e0                  _TRISEbits = 0x2e0
                    0x02e2                  PORTE = 0x2e2
                    0x02e2                  _PORTE = 0x2e2
                    0x02e2                  _PORTEbits = 0x2e2
                    0x02e4                  LATE = 0x2e4
                    0x02e4                  _LATE = 0x2e4
                    0x02e4                  _LATEbits = 0x2e4
                    0x02e6                  ODCE = 0x2e6
                    0x02e6                  _ODCE = 0x2e6
                    0x02e6                  _ODCEbits = 0x2e6
                    0x02e8                  TRISF = 0x2e8
                    0x02e8                  _TRISF = 0x2e8
                    0x02e8                  _TRISFbits = 0x2e8
                    0x02ea                  PORTF = 0x2ea
                    0x02ea                  _PORTF = 0x2ea
                    0x02ea                  _PORTFbits = 0x2ea
                    0x02ec                  LATF = 0x2ec
                    0x02ec                  _LATF = 0x2ec
                    0x02ec                  _LATFbits = 0x2ec
                    0x02ee                  ODCF = 0x2ee
                    0x02ee                  _ODCF = 0x2ee
                    0x02ee                  _ODCFbits = 0x2ee
                    0x02f0                  TRISG = 0x2f0
                    0x02f0                  _TRISG = 0x2f0
                    0x02f0                  _TRISGbits = 0x2f0
                    0x02f2                  PORTG = 0x2f2
                    0x02f2                  _PORTG = 0x2f2
                    0x02f2                  _PORTGbits = 0x2f2
                    0x02f4                  LATG = 0x2f4
                    0x02f4                  _LATG = 0x2f4
                    0x02f4                  _LATGbits = 0x2f4
                    0x02f6                  ODCG = 0x2f6
                    0x02f6                  _ODCG = 0x2f6
                    0x02f6                  _ODCGbits = 0x2f6
                    0x02fc                  PADCFG1 = 0x2fc
                    0x02fc                  _PADCFG1 = 0x2fc
                    0x02fc                  _PADCFG1bits = 0x2fc
                    0x0300                  ADC1BUF0 = 0x300
                    0x0300                  _ADC1BUF0 = 0x300
                    0x0302                  ADC1BUF1 = 0x302
                    0x0302                  _ADC1BUF1 = 0x302
                    0x0304                  ADC1BUF2 = 0x304
                    0x0304                  _ADC1BUF2 = 0x304
                    0x0306                  ADC1BUF3 = 0x306
                    0x0306                  _ADC1BUF3 = 0x306
                    0x0308                  ADC1BUF4 = 0x308
                    0x0308                  _ADC1BUF4 = 0x308
                    0x030a                  ADC1BUF5 = 0x30a
                    0x030a                  _ADC1BUF5 = 0x30a
                    0x030c                  ADC1BUF6 = 0x30c
                    0x030c                  _ADC1BUF6 = 0x30c
                    0x030e                  ADC1BUF7 = 0x30e
                    0x030e                  _ADC1BUF7 = 0x30e
                    0x0310                  ADC1BUF8 = 0x310
                    0x0310                  _ADC1BUF8 = 0x310
                    0x0312                  ADC1BUF9 = 0x312
                    0x0312                  _ADC1BUF9 = 0x312
                    0x0314                  ADC1BUFA = 0x314
                    0x0314                  _ADC1BUFA = 0x314
                    0x0316                  ADC1BUFB = 0x316
                    0x0316                  _ADC1BUFB = 0x316
                    0x0318                  ADC1BUFC = 0x318
                    0x0318                  _ADC1BUFC = 0x318
                    0x031a                  ADC1BUFD = 0x31a
                    0x031a                  _ADC1BUFD = 0x31a
                    0x031c                  ADC1BUFE = 0x31c
                    0x031c                  _ADC1BUFE = 0x31c
                    0x031e                  ADC1BUFF = 0x31e
                    0x031e                  _ADC1BUFF = 0x31e
                    0x0320                  AD1CON1 = 0x320
                    0x0320                  _AD1CON1 = 0x320
                    0x0320                  _AD1CON1bits = 0x320
                    0x0322                  AD1CON2 = 0x322
                    0x0322                  _AD1CON2 = 0x322
                    0x0322                  _AD1CON2bits = 0x322
                    0x0324                  AD1CON3 = 0x324
                    0x0324                  _AD1CON3 = 0x324
                    0x0324                  _AD1CON3bits = 0x324
                    0x0328                  AD1CHS = 0x328
                    0x0328                  _AD1CHS = 0x328
                    0x0328                  _AD1CHSbits = 0x328
                    0x0328                  AD1CHS0 = 0x328
                    0x0328                  _AD1CHS0 = 0x328
                    0x0328                  _AD1CHS0bits = 0x328
                    0x032e                  AD1CSSH = 0x32e
                    0x032e                  _AD1CSSH = 0x32e
                    0x032e                  _AD1CSSHbits = 0x32e
                    0x0330                  AD1CSSL = 0x330
                    0x0330                  _AD1CSSL = 0x330
                    0x0330                  _AD1CSSLbits = 0x330
                    0x033c                  CTMUCON = 0x33c
                    0x033c                  _CTMUCON = 0x33c
                    0x033c                  _CTMUCONbits = 0x33c
                    0x033e                  CTMUICON = 0x33e
                    0x033e                  _CTMUICON = 0x33e
                    0x033e                  _CTMUICONbits = 0x33e
                    0x0340                  ADC1BUF10 = 0x340
                    0x0340                  _ADC1BUF10 = 0x340
                    0x0342                  ADC1BUF11 = 0x342
                    0x0342                  _ADC1BUF11 = 0x342
                    0x0344                  ADC1BUF12 = 0x344
                    0x0344                  _ADC1BUF12 = 0x344
                    0x0346                  ADC1BUF13 = 0x346
                    0x0346                  _ADC1BUF13 = 0x346
                    0x0348                  ADC1BUF14 = 0x348
                    0x0348                  _ADC1BUF14 = 0x348
                    0x034a                  ADC1BUF15 = 0x34a
                    0x034a                  _ADC1BUF15 = 0x34a
                    0x034c                  ADC1BUF16 = 0x34c
                    0x034c                  _ADC1BUF16 = 0x34c
                    0x034e                  ADC1BUF17 = 0x34e
                    0x034e                  _ADC1BUF17 = 0x34e
                    0x0350                  ADC1BUF18 = 0x350
                    0x0350                  _ADC1BUF18 = 0x350
                    0x0352                  ADC1BUF19 = 0x352
                    0x0352                  _ADC1BUF19 = 0x352
                    0x0354                  ADC1BUF1A = 0x354
                    0x0354                  _ADC1BUF1A = 0x354
                    0x0356                  ADC1BUF1B = 0x356
                    0x0356                  _ADC1BUF1B = 0x356
                    0x0358                  ADC1BUF1C = 0x358
                    0x0358                  _ADC1BUF1C = 0x358
                    0x035a                  ADC1BUF1D = 0x35a
                    0x035a                  _ADC1BUF1D = 0x35a
                    0x035c                  ADC1BUF1E = 0x35c
                    0x035c                  _ADC1BUF1E = 0x35c
                    0x035e                  ADC1BUF1F = 0x35e
                    0x035e                  _ADC1BUF1F = 0x35e
                    0x0480                  U1OTGIR = 0x480
                    0x0480                  _U1OTGIR = 0x480
                    0x0480                  _U1OTGIRbits = 0x480
                    0x0482                  U1OTGIE = 0x482
                    0x0482                  _U1OTGIE = 0x482
                    0x0482                  _U1OTGIEbits = 0x482
                    0x0484                  U1OTGSTAT = 0x484
                    0x0484                  _U1OTGSTAT = 0x484
                    0x0484                  _U1OTGSTATbits = 0x484
                    0x0486                  U1OTGCON = 0x486
                    0x0486                  _U1OTGCON = 0x486
                    0x0486                  _U1OTGCONbits = 0x486
                    0x0488                  U1PWRC = 0x488
                    0x0488                  _U1PWRC = 0x488
                    0x0488                  _U1PWRCbits = 0x488
                    0x048a                  U1IR = 0x48a
                    0x048a                  _U1IR = 0x48a
                    0x048a                  _U1IRbits = 0x48a
                    0x048c                  U1IE = 0x48c
                    0x048c                  _U1IE = 0x48c
                    0x048c                  _U1IEbits = 0x48c
                    0x048e                  U1EIR = 0x48e
                    0x048e                  _U1EIR = 0x48e
                    0x048e                  _U1EIRbits = 0x48e
                    0x0490                  U1EIE = 0x490
                    0x0490                  _U1EIE = 0x490
                    0x0490                  _U1EIEbits = 0x490
                    0x0492                  U1STAT = 0x492
                    0x0492                  _U1STAT = 0x492
                    0x0492                  _U1STATbits = 0x492
                    0x0494                  U1CON = 0x494
                    0x0494                  _U1CON = 0x494
                    0x0494                  _U1CONbits = 0x494
                    0x0496                  U1ADDR = 0x496
                    0x0496                  _U1ADDR = 0x496
                    0x0496                  _U1ADDRbits = 0x496
                    0x0498                  U1BDTP1 = 0x498
                    0x0498                  _U1BDTP1 = 0x498
                    0x0498                  _U1BDTP1bits = 0x498
                    0x049a                  U1FRML = 0x49a
                    0x049a                  _U1FRML = 0x49a
                    0x049a                  _U1FRMLbits = 0x49a
                    0x049c                  U1FRMH = 0x49c
                    0x049c                  _U1FRMH = 0x49c
                    0x049c                  _U1FRMHbits = 0x49c
                    0x049e                  U1TOK = 0x49e
                    0x049e                  _U1TOK = 0x49e
                    0x049e                  _U1TOKbits = 0x49e
                    0x04a0                  U1SOF = 0x4a0
                    0x04a0                  _U1SOF = 0x4a0
                    0x04a0                  _U1SOFbits = 0x4a0
                    0x04a2                  U1BDTP2 = 0x4a2
                    0x04a2                  _U1BDTP2 = 0x4a2
                    0x04a2                  _U1BDTP2bits = 0x4a2
                    0x04a4                  U1BDTP3 = 0x4a4
                    0x04a4                  _U1BDTP3 = 0x4a4
                    0x04a4                  _U1BDTP3bits = 0x4a4
                    0x04a6                  U1CNFG1 = 0x4a6
                    0x04a6                  _U1CNFG1 = 0x4a6
                    0x04a6                  _U1CNFG1bits = 0x4a6
                    0x04a8                  U1CNFG2 = 0x4a8
                    0x04a8                  _U1CNFG2 = 0x4a8
                    0x04a8                  _U1CNFG2bits = 0x4a8
                    0x04aa                  U1EP0 = 0x4aa
                    0x04aa                  _U1EP0 = 0x4aa
                    0x04aa                  _U1EP0bits = 0x4aa
                    0x04ac                  U1EP1 = 0x4ac
                    0x04ac                  _U1EP1 = 0x4ac
                    0x04ac                  _U1EP1bits = 0x4ac
                    0x04ae                  U1EP2 = 0x4ae
                    0x04ae                  _U1EP2 = 0x4ae
                    0x04ae                  _U1EP2bits = 0x4ae
                    0x04b0                  U1EP3 = 0x4b0
                    0x04b0                  _U1EP3 = 0x4b0
                    0x04b0                  _U1EP3bits = 0x4b0
                    0x04b2                  U1EP4 = 0x4b2
                    0x04b2                  _U1EP4 = 0x4b2
                    0x04b2                  _U1EP4bits = 0x4b2
                    0x04b4                  U1EP5 = 0x4b4
                    0x04b4                  _U1EP5 = 0x4b4
                    0x04b4                  _U1EP5bits = 0x4b4
                    0x04b6                  U1EP6 = 0x4b6
                    0x04b6                  _U1EP6 = 0x4b6
                    0x04b6                  _U1EP6bits = 0x4b6
                    0x04b8                  U1EP7 = 0x4b8
                    0x04b8                  _U1EP7 = 0x4b8
                    0x04b8                  _U1EP7bits = 0x4b8
                    0x04ba                  U1EP8 = 0x4ba
                    0x04ba                  _U1EP8 = 0x4ba
                    0x04ba                  _U1EP8bits = 0x4ba
                    0x04bc                  U1EP9 = 0x4bc
                    0x04bc                  _U1EP9 = 0x4bc
                    0x04bc                  _U1EP9bits = 0x4bc
                    0x04be                  U1EP10 = 0x4be
                    0x04be                  _U1EP10 = 0x4be
                    0x04be                  _U1EP10bits = 0x4be
                    0x04c0                  U1EP11 = 0x4c0
                    0x04c0                  _U1EP11 = 0x4c0
                    0x04c0                  _U1EP11bits = 0x4c0
                    0x04c2                  U1EP12 = 0x4c2
                    0x04c2                  _U1EP12 = 0x4c2
                    0x04c2                  _U1EP12bits = 0x4c2
                    0x04c4                  U1EP13 = 0x4c4
                    0x04c4                  _U1EP13 = 0x4c4
                    0x04c4                  _U1EP13bits = 0x4c4
                    0x04c6                  U1EP14 = 0x4c6
                    0x04c6                  _U1EP14 = 0x4c6
                    0x04c6                  _U1EP14bits = 0x4c6
                    0x04c8                  U1EP15 = 0x4c8
                    0x04c8                  _U1EP15 = 0x4c8
                    0x04c8                  _U1EP15bits = 0x4c8
                    0x04cc                  U1PWMRRS = 0x4cc
                    0x04cc                  _U1PWMRRS = 0x4cc
                    0x04cc                  _U1PWMRRSbits = 0x4cc
                    0x04ce                  U1PWMCON = 0x4ce
                    0x04ce                  _U1PWMCON = 0x4ce
                    0x04ce                  _U1PWMCONbits = 0x4ce
                    0x04de                  ANCFG = 0x4de
                    0x04de                  _ANCFG = 0x4de
                    0x04de                  _ANCFGbits = 0x4de
                    0x04e2                  ANSB = 0x4e2
                    0x04e2                  _ANSB = 0x4e2
                    0x04e2                  _ANSBbits = 0x4e2
                    0x04e4                  ANSC = 0x4e4
                    0x04e4                  _ANSC = 0x4e4
                    0x04e4                  _ANSCbits = 0x4e4
                    0x04e6                  ANSD = 0x4e6
                    0x04e6                  _ANSD = 0x4e6
                    0x04e6                  _ANSDbits = 0x4e6
                    0x04ea                  ANSF = 0x4ea
                    0x04ea                  _ANSF = 0x4ea
                    0x04ea                  _ANSFbits = 0x4ea
                    0x04ec                  ANSG = 0x4ec
                    0x04ec                  _ANSG = 0x4ec
                    0x04ec                  _ANSGbits = 0x4ec
                    0x0620                  ALRMVAL = 0x620
                    0x0620                  _ALRMVAL = 0x620
                    0x0622                  ALCFGRPT = 0x622
                    0x0622                  _ALCFGRPT = 0x622
                    0x0622                  _ALCFGRPTbits = 0x622
                    0x0624                  RTCVAL = 0x624
                    0x0624                  _RTCVAL = 0x624
                    0x0626                  RCFGCAL = 0x626
                    0x0626                  _RCFGCAL = 0x626
                    0x0626                  _RCFGCALbits = 0x626
                    0x0630                  CMSTAT = 0x630
                    0x0630                  _CMSTAT = 0x630
                    0x0630                  _CMSTATbits = 0x630
                    0x0632                  CVRCON = 0x632
                    0x0632                  _CVRCON = 0x632
                    0x0632                  _CVRCONbits = 0x632
                    0x0634                  CM1CON = 0x634
                    0x0634                  _CM1CON = 0x634
                    0x0634                  _CM1CONbits = 0x634
                    0x0636                  CM2CON = 0x636
                    0x0636                  _CM2CON = 0x636
                    0x0636                  _CM2CONbits = 0x636
                    0x0638                  CM3CON = 0x638
                    0x0638                  _CM3CON = 0x638
                    0x0638                  _CM3CONbits = 0x638
                    0x0640                  CRCCON1 = 0x640
                    0x0640                  _CRCCON1 = 0x640
                    0x0640                  _CRCCON1bits = 0x640
                    0x0642                  CRCCON2 = 0x642
                    0x0642                  _CRCCON2 = 0x642
                    0x0642                  _CRCCON2bits = 0x642
                    0x0644                  CRCXORL = 0x644
                    0x0644                  _CRCXORL = 0x644
                    0x0644                  _CRCXORLbits = 0x644
                    0x0646                  CRCXORH = 0x646
                    0x0646                  _CRCXORH = 0x646
                    0x0646                  _CRCXORHbits = 0x646
                    0x0648                  CRCDATL = 0x648
                    0x0648                  _CRCDATL = 0x648
                    0x064a                  CRCDATH = 0x64a
                    0x064a                  _CRCDATH = 0x64a
                    0x064c                  CRCWDATL = 0x64c
                    0x064c                  _CRCWDATL = 0x64c
                    0x064e                  CRCWDATH = 0x64e
                    0x064e                  _CRCWDATH = 0x64e
                    0x0680                  RPINR0 = 0x680
                    0x0680                  _RPINR0 = 0x680
                    0x0680                  _RPINR0bits = 0x680
                    0x0682                  RPINR1 = 0x682
                    0x0682                  _RPINR1 = 0x682
                    0x0682                  _RPINR1bits = 0x682
                    0x0684                  RPINR2 = 0x684
                    0x0684                  _RPINR2 = 0x684
                    0x0684                  _RPINR2bits = 0x684
                    0x0686                  RPINR3 = 0x686
                    0x0686                  _RPINR3 = 0x686
                    0x0686                  _RPINR3bits = 0x686
                    0x0688                  RPINR4 = 0x688
                    0x0688                  _RPINR4 = 0x688
                    0x0688                  _RPINR4bits = 0x688
                    0x068e                  RPINR7 = 0x68e
                    0x068e                  _RPINR7 = 0x68e
                    0x068e                  _RPINR7bits = 0x68e
                    0x0690                  RPINR8 = 0x690
                    0x0690                  _RPINR8 = 0x690
                    0x0690                  _RPINR8bits = 0x690
                    0x0692                  RPINR9 = 0x692
                    0x0692                  _RPINR9 = 0x692
                    0x0692                  _RPINR9bits = 0x692
                    0x0694                  RPINR10 = 0x694
                    0x0694                  _RPINR10 = 0x694
                    0x0694                  _RPINR10bits = 0x694
                    0x0696                  RPINR11 = 0x696
                    0x0696                  _RPINR11 = 0x696
                    0x0696                  _RPINR11bits = 0x696
                    0x069e                  RPINR15 = 0x69e
                    0x069e                  _RPINR15 = 0x69e
                    0x069e                  _RPINR15bits = 0x69e
                    0x06a2                  RPINR17 = 0x6a2
                    0x06a2                  _RPINR17 = 0x6a2
                    0x06a2                  _RPINR17bits = 0x6a2
                    0x06a4                  RPINR18 = 0x6a4
                    0x06a4                  _RPINR18 = 0x6a4
                    0x06a4                  _RPINR18bits = 0x6a4
                    0x06a6                  RPINR19 = 0x6a6
                    0x06a6                  _RPINR19 = 0x6a6
                    0x06a6                  _RPINR19bits = 0x6a6
                    0x06a8                  RPINR20 = 0x6a8
                    0x06a8                  _RPINR20 = 0x6a8
                    0x06a8                  _RPINR20bits = 0x6a8
                    0x06aa                  RPINR21 = 0x6aa
                    0x06aa                  _RPINR21 = 0x6aa
                    0x06aa                  _RPINR21bits = 0x6aa
                    0x06ac                  RPINR22 = 0x6ac
                    0x06ac                  _RPINR22 = 0x6ac
                    0x06ac                  _RPINR22bits = 0x6ac
                    0x06ae                  RPINR23 = 0x6ae
                    0x06ae                  _RPINR23 = 0x6ae
                    0x06ae                  _RPINR23bits = 0x6ae
                    0x06b6                  RPINR27 = 0x6b6
                    0x06b6                  _RPINR27 = 0x6b6
                    0x06b6                  _RPINR27bits = 0x6b6
                    0x06b8                  RPINR28 = 0x6b8
                    0x06b8                  _RPINR28 = 0x6b8
                    0x06b8                  _RPINR28bits = 0x6b8
                    0x06ba                  RPINR29 = 0x6ba
                    0x06ba                  _RPINR29 = 0x6ba
                    0x06ba                  _RPINR29bits = 0x6ba
                    0x06c0                  RPOR0 = 0x6c0
                    0x06c0                  _RPOR0 = 0x6c0
                    0x06c0                  _RPOR0bits = 0x6c0
                    0x06c2                  RPOR1 = 0x6c2
                    0x06c2                  _RPOR1 = 0x6c2
                    0x06c2                  _RPOR1bits = 0x6c2
                    0x06c4                  RPOR2 = 0x6c4
                    0x06c4                  _RPOR2 = 0x6c4
                    0x06c4                  _RPOR2bits = 0x6c4
                    0x06c6                  RPOR3 = 0x6c6
                    0x06c6                  _RPOR3 = 0x6c6
                    0x06c6                  _RPOR3bits = 0x6c6
                    0x06c8                  RPOR4 = 0x6c8
                    0x06c8                  _RPOR4 = 0x6c8
                    0x06c8                  _RPOR4bits = 0x6c8
                    0x06ca                  RPOR5 = 0x6ca
                    0x06ca                  _RPOR5 = 0x6ca
                    0x06ca                  _RPOR5bits = 0x6ca
                    0x06cc                  RPOR6 = 0x6cc
                    0x06cc                  _RPOR6 = 0x6cc
                    0x06cc                  _RPOR6bits = 0x6cc
                    0x06ce                  RPOR7 = 0x6ce
                    0x06ce                  _RPOR7 = 0x6ce
                    0x06ce                  _RPOR7bits = 0x6ce
                    0x06d0                  RPOR8 = 0x6d0
                    0x06d0                  _RPOR8 = 0x6d0
                    0x06d0                  _RPOR8bits = 0x6d0
                    0x06d2                  RPOR9 = 0x6d2
                    0x06d2                  _RPOR9 = 0x6d2
                    0x06d2                  _RPOR9bits = 0x6d2
                    0x06d4                  RPOR10 = 0x6d4
                    0x06d4                  _RPOR10 = 0x6d4
                    0x06d4                  _RPOR10bits = 0x6d4
                    0x06d6                  RPOR11 = 0x6d6
                    0x06d6                  _RPOR11 = 0x6d6
                    0x06d6                  _RPOR11bits = 0x6d6
                    0x06d8                  RPOR12 = 0x6d8
                    0x06d8                  _RPOR12 = 0x6d8
                    0x06d8                  _RPOR12bits = 0x6d8
                    0x06da                  RPOR13 = 0x6da
                    0x06da                  _RPOR13 = 0x6da
                    0x06da                  _RPOR13bits = 0x6da
                    0x06dc                  RPOR14 = 0x6dc
                    0x06dc                  _RPOR14 = 0x6dc
                    0x06dc                  _RPOR14bits = 0x6dc
                    0x0700                  G1CMDL = 0x700
                    0x0700                  _G1CMDL = 0x700
                    0x0700                  _G1CMDLbits = 0x700
                    0x0702                  G1CMDH = 0x702
                    0x0702                  _G1CMDH = 0x702
                    0x0702                  _G1CMDHbits = 0x702
                    0x0704                  G1CON1 = 0x704
                    0x0704                  _G1CON1 = 0x704
                    0x0704                  _G1CON1bits = 0x704
                    0x0706                  G1STAT = 0x706
                    0x0706                  _G1STAT = 0x706
                    0x0706                  _G1STATbits = 0x706
                    0x0708                  G1IE = 0x708
                    0x0708                  _G1IE = 0x708
                    0x0708                  _G1IEbits = 0x708
                    0x070a                  G1IR = 0x70a
                    0x070a                  _G1IR = 0x70a
                    0x070a                  _G1IRbits = 0x70a
                    0x070c                  G1W1ADRL = 0x70c
                    0x070c                  _G1W1ADRL = 0x70c
                    0x070c                  _G1W1ADRLbits = 0x70c
                    0x070e                  G1W1ADRH = 0x70e
                    0x070e                  _G1W1ADRH = 0x70e
                    0x070e                  _G1W1ADRHbits = 0x70e
                    0x0710                  G1W2ADRL = 0x710
                    0x0710                  _G1W2ADRL = 0x710
                    0x0710                  _G1W2ADRLbits = 0x710
                    0x0712                  G1W2ADRH = 0x712
                    0x0712                  _G1W2ADRH = 0x712
                    0x0712                  _G1W2ADRHbits = 0x712
                    0x0714                  G1PUW = 0x714
                    0x0714                  _G1PUW = 0x714
                    0x0714                  _G1PUWbits = 0x714
                    0x0716                  G1PUH = 0x716
                    0x0716                  _G1PUH = 0x716
                    0x0716                  _G1PUHbits = 0x716
                    0x0718                  G1DPADRL = 0x718
                    0x0718                  _G1DPADRL = 0x718
                    0x0718                  _G1DPADRLbits = 0x718
                    0x071a                  G1DPADRH = 0x71a
                    0x071a                  _G1DPADRH = 0x71a
                    0x071a                  _G1DPADRHbits = 0x71a
                    0x071c                  G1DPW = 0x71c
                    0x071c                  _G1DPW = 0x71c
                    0x071c                  _G1DPWbits = 0x71c
                    0x071e                  G1DPH = 0x71e
                    0x071e                  _G1DPH = 0x71e
                    0x071e                  _G1DPHbits = 0x71e
                    0x0720                  G1DPWT = 0x720
                    0x0720                  _G1DPWT = 0x720
                    0x0720                  _G1DPWTbits = 0x720
                    0x0722                  G1DPHT = 0x722
                    0x0722                  _G1DPHT = 0x722
                    0x0722                  _G1DPHTbits = 0x722
                    0x0724                  G1CON2 = 0x724
                    0x0724                  _G1CON2 = 0x724
                    0x0724                  _G1CON2bits = 0x724
                    0x0726                  G1CON3 = 0x726
                    0x0726                  _G1CON3 = 0x726
                    0x0726                  _G1CON3bits = 0x726
                    0x0728                  G1ACTDA = 0x728
                    0x0728                  _G1ACTDA = 0x728
                    0x0728                  _G1ACTDAbits = 0x728
                    0x072a                  G1HSYNC = 0x72a
                    0x072a                  _G1HSYNC = 0x72a
                    0x072a                  _G1HSYNCbits = 0x72a
                    0x072c                  G1VSYNC = 0x72c
                    0x072c                  _G1VSYNC = 0x72c
                    0x072c                  _G1VSYNCbits = 0x72c
                    0x072e                  G1DBLCON = 0x72e
                    0x072e                  _G1DBLCON = 0x72e
                    0x072e                  _G1DBLCONbits = 0x72e
                    0x0730                  G1CLUT = 0x730
                    0x0730                  _G1CLUT = 0x730
                    0x0730                  _G1CLUTbits = 0x730
                    0x0732                  G1CLUTWR = 0x732
                    0x0732                  _G1CLUTWR = 0x732
                    0x0732                  _G1CLUTWRbits = 0x732
                    0x0734                  G1CLUTRD = 0x734
                    0x0734                  _G1CLUTRD = 0x734
                    0x0734                  _G1CLUTRDbits = 0x734
                    0x0736                  G1MRGN = 0x736
                    0x0736                  _G1MRGN = 0x736
                    0x0736                  _G1MRGNbits = 0x736
                    0x0738                  G1CHRX = 0x738
                    0x0738                  _G1CHRX = 0x738
                    0x0738                  _G1CHRXbits = 0x738
                    0x073a                  G1CHRY = 0x73a
                    0x073a                  _G1CHRY = 0x73a
                    0x073a                  _G1CHRYbits = 0x73a
                    0x073c                  G1IPU = 0x73c
                    0x073c                  _G1IPU = 0x73c
                    0x073c                  _G1IPUbits = 0x73c
                    0x073e                  G1DBEN = 0x73e
                    0x073e                  _G1DBEN = 0x73e
                    0x073e                  _G1DBENbits = 0x73e
                    0x0740                  RCON = 0x740
                    0x0740                  _RCON = 0x740
                    0x0740                  _RCONbits = 0x740
                    0x0742                  OSCCON = 0x742
                    0x0742                  _OSCCON = 0x742
                    0x0742                  _OSCCONbits = 0x742
                    0x0742                  OSCCONL = 0x742
                    0x0742                  _OSCCONL = 0x742
                    0x0743                  OSCCONH = 0x743
                    0x0743                  _OSCCONH = 0x743
                    0x0744                  CLKDIV = 0x744
                    0x0744                  _CLKDIV = 0x744
                    0x0744                  _CLKDIVbits = 0x744
                    0x0746                  CLKDIV2 = 0x746
                    0x0746                  _CLKDIV2 = 0x746
                    0x0746                  _CLKDIV2bits = 0x746
                    0x0748                  OSCTUN = 0x748
                    0x0748                  _OSCTUN = 0x748
                    0x0748                  _OSCTUNbits = 0x748
                    0x074a                  RSIBCON = 0x74a
                    0x074a                  _RSIBCON = 0x74a
                    0x074e                  REFOCON = 0x74e
                    0x074e                  _REFOCON = 0x74e
                    0x074e                  _REFOCONbits = 0x74e
                    0x0760                  NVMCON = 0x760
                    0x0760                  _NVMCON = 0x760
                    0x0760                  _NVMCONbits = 0x760
                    0x0766                  NVMKEY = 0x766
                    0x0766                  _NVMKEY = 0x766
                    0x0770                  PMD1 = 0x770
                    0x0770                  _PMD1 = 0x770
                    0x0770                  _PMD1bits = 0x770
                    0x0772                  PMD2 = 0x772
                    0x0772                  _PMD2 = 0x772
                    0x0772                  _PMD2bits = 0x772
                    0x0774                  PMD3 = 0x774
                    0x0774                  _PMD3 = 0x774
                    0x0774                  _PMD3bits = 0x774
                    0x0776                  PMD4 = 0x776
                    0x0776                  _PMD4 = 0x776
                    0x0776                  _PMD4bits = 0x776
                    0x0778                  PMD5 = 0x778
                    0x0778                  _PMD5 = 0x778
                    0x0778                  _PMD5bits = 0x778
                    0x077a                  PMD6 = 0x77a
                    0x077a                  _PMD6 = 0x77a
                    0x077a                  _PMD6bits = 0x77a
                    0x0144                  IC1 = 0x144
                    0x0144                  _IC1 = 0x144
                    0x014c                  IC2 = 0x14c
                    0x014c                  _IC2 = 0x14c
                    0x0154                  IC3 = 0x154
                    0x0154                  _IC3 = 0x154
                    0x015c                  IC4 = 0x15c
                    0x015c                  _IC4 = 0x15c
                    0x0164                  IC5 = 0x164
                    0x0164                  _IC5 = 0x164
                    0x016c                  IC6 = 0x16c
                    0x016c                  _IC6 = 0x16c
                    0x0174                  IC7 = 0x174
                    0x0174                  _IC7 = 0x174
                    0x017c                  IC8 = 0x17c
                    0x017c                  _IC8 = 0x17c
                    0x0194                  OC1 = 0x194
                    0x0194                  _OC1 = 0x194
                    0x019e                  OC2 = 0x19e
                    0x019e                  _OC2 = 0x19e
                    0x01a8                  OC3 = 0x1a8
                    0x01a8                  _OC3 = 0x1a8
                    0x01b2                  OC4 = 0x1b2
                    0x01b2                  _OC4 = 0x1b2
                    0x01bc                  OC5 = 0x1bc
                    0x01bc                  _OC5 = 0x1bc
                    0x01c6                  OC6 = 0x1c6
                    0x01c6                  _OC6 = 0x1c6
                    0x01d0                  OC7 = 0x1d0
                    0x01d0                  _OC7 = 0x1d0
                    0x01da                  OC8 = 0x1da
                    0x01da                  _OC8 = 0x1da
                    0x0240                  SPI1 = 0x240
                    0x0240                  _SPI1 = 0x240
                    0x0260                  SPI2 = 0x260
                    0x0260                  _SPI2 = 0x260
                    0x0220                  UART1 = 0x220
                    0x0220                  _UART1 = 0x220
                    0x0230                  UART2 = 0x230
                    0x0230                  _UART2 = 0x230
START GROUP
LOAD /Applications/microchip/mplabc30/v3.30c/bin/bin/../../lib/libpic30-coff.a
LOAD /Applications/microchip/mplabc30/v3.30c/bin/bin/../../lib/libm-coff.a
LOAD /Applications/microchip/mplabc30/v3.30c/bin/bin/../../lib/libc-coff.a
END GROUP
OUTPUT(dist/IOIO0023/production/app_layer_v1.production.cof coff-pic30)
LOAD jump_table
LOAD data_init
LOAD default_isr
LOAD heap

__c30_signature
                  0x005110        0x1a4
 __c30_signature
                  0x005110          0x6 build/IOIO0023/production/_ext/1270477542/logging.o
 __c30_signature
                  0x005116          0x6 build/IOIO0023/production/_ext/1537399865/uart2.o
 __c30_signature
                  0x00511c          0x6 build/IOIO0023/production/adc.o
 __c30_signature
                  0x005122          0x6 build/IOIO0023/production/byte_queue.o
 __c30_signature
                  0x005128          0x6 build/IOIO0023/production/digital.o
 __c30_signature
                  0x00512e          0x6 build/IOIO0023/production/features.o
 __c30_signature
                  0x005134          0x6 build/IOIO0023/production/i2c.o
 __c30_signature
                  0x00513a          0x6 build/IOIO0023/production/icsp.o
 __c30_signature
                  0x005140          0x6 build/IOIO0023/production/incap.o
 __c30_signature
                  0x005146          0x6 build/IOIO0023/production/main.o
 __c30_signature
                  0x00514c          0x6 build/IOIO0023/production/pins.o
 __c30_signature
                  0x005152          0x6 build/IOIO0023/production/protocol.o
 __c30_signature
                  0x005158          0x6 build/IOIO0023/production/pwm.o
 __c30_signature
                  0x00515e          0x6 build/IOIO0023/production/spi.o
 __c30_signature
                  0x005164          0x6 build/IOIO0023/production/timers.o
 __c30_signature
                  0x00516a          0x6 build/IOIO0023/production/uart.o
 __c30_signature
                  0x005170          0x6 build/IOIO0023/production/rgb_led_matrix.o
 __c30_signature
                  0x005176          0x6 build/IOIO0023/production/pixel.o
 __c30_signature
                  0x00517c          0x6 ../libconn/dist/PIC24FJ256DA206/production/libconn.a(connection.o)
 __c30_signature
                  0x005182          0x6 ../libconn/dist/PIC24FJ256DA206/production/libconn.a(accessory.o)
 __c30_signature
                  0x005188          0x6 ../libconn/dist/PIC24FJ256DA206/production/libconn.a(bt_app.o)
 __c30_signature
                  0x00518e          0x6 ../libsdcard.X/dist/PIC24FJ256DA206/production/libsdcard.X.a(FSIO.o)
 __c30_signature
                  0x005194          0x6 ../libsdcard.X/dist/PIC24FJ256DA206/production/libsdcard.X.a(SD-SPI.o)
 __c30_signature
                  0x00519a          0x6 ../libadb/dist/PIC24FJ256DA206/production/libadb.a(adb.o)
 __c30_signature
                  0x0051a0          0x6 ../libadb/dist/PIC24FJ256DA206/production/libadb.a(adb_file.o)
 __c30_signature
                  0x0051a6          0x6 ../libadb/dist/PIC24FJ256DA206/production/libadb.a(adb_packet.o)
 __c30_signature
                  0x0051ac          0x6 ../libusb/dist/PIC24FJ256DA206/production/libusb.a(usb_host_android.o)
 __c30_signature
                  0x0051b2          0x6 ../libusb/dist/PIC24FJ256DA206/production/libusb.a(usb_host.o)
 __c30_signature
                  0x0051b8          0x6 ../libusb/dist/PIC24FJ256DA206/production/libusb.a(usb_host_bluetooth.o)
 __c30_signature
                  0x0051be          0x6 ../libusb/dist/PIC24FJ256DA206/production/libusb.a(usb_config.o)
 __c30_signature
                  0x0051c4          0x6 ../libbtstack/dist/PIC24FJ256DA206/production/libbtstack.a(hci_cmds.o)
 __c30_signature
                  0x0051ca          0x6 ../libbtstack/dist/PIC24FJ256DA206/production/libbtstack.a(utils.o)
 __c30_signature
                  0x0051d0          0x6 ../libbtstack/dist/PIC24FJ256DA206/production/libbtstack.a(hci.o)
 __c30_signature
                  0x0051d6          0x6 ../libbtstack/dist/PIC24FJ256DA206/production/libbtstack.a(rfcomm.o)
 __c30_signature
                  0x0051dc          0x6 ../libbtstack/dist/PIC24FJ256DA206/production/libbtstack.a(btstack_memory.o)
 __c30_signature
                  0x0051e2          0x6 ../libbtstack/dist/PIC24FJ256DA206/production/libbtstack.a(hci_transport_mchpusb.o)
 __c30_signature
                  0x0051e8          0x6 ../libbtstack/dist/PIC24FJ256DA206/production/libbtstack.a(remote_device_db_memory.o)
 __c30_signature
                  0x0051ee          0x6 ../libbtstack/dist/PIC24FJ256DA206/production/libbtstack.a(l2cap.o)
 __c30_signature
                  0x0051f4          0x6 ../libbtstack/dist/PIC24FJ256DA206/production/libbtstack.a(sdp.o)
 __c30_signature
                  0x0051fa          0x6 ../libbtstack/dist/PIC24FJ256DA206/production/libbtstack.a(sdp_util.o)
 __c30_signature
                  0x005200          0x6 ../libbtstack/dist/PIC24FJ256DA206/production/libbtstack.a(linked_list.o)
 __c30_signature
                  0x005206          0x6 ../libbtstack/dist/PIC24FJ256DA206/production/libbtstack.a(hci_dump.o)
 __c30_signature
                  0x00520c          0x6 ../libbtstack/dist/PIC24FJ256DA206/production/libbtstack.a(memory_pool.o)
 __c30_signature
                  0x005212          0x6 ../libbtstack/dist/PIC24FJ256DA206/production/libbtstack.a(l2cap_signaling.o)
 __c30_signature
                  0x005218          0x6 /Applications/microchip/mplabc30/v3.30c/bin/bin/../../lib/libpic30-coff.a(crt0_extended.o)
 __c30_signature
                  0x00521e          0x6 /Applications/microchip/mplabc30/v3.30c/bin/bin/../../lib/libpic30-coff.a(memcpy_helper.o)
 __c30_signature
                  0x005224          0x6 /Applications/microchip/mplabc30/v3.30c/bin/bin/../../lib/libpic30-coff.a(data_init_extended.o)
 __c30_signature
                  0x00522a          0x6 /Applications/microchip/mplabc30/v3.30c/bin/bin/../../lib/libm-coff.a(mulsi3.o)
 __c30_signature
                  0x005230          0x6 /Applications/microchip/mplabc30/v3.30c/bin/bin/../../lib/libm-coff.a(udivsi3.o)
 __c30_signature
                  0x005236          0x6 /Applications/microchip/mplabc30/v3.30c/bin/bin/../../lib/libm-coff.a(umodsi3.o)
 __c30_signature
                  0x00523c          0x6 /Applications/microchip/mplabc30/v3.30c/bin/bin/../../lib/libc-coff.a(memcpy.XXo)
 __c30_signature
                  0x005242          0x6 /Applications/microchip/mplabc30/v3.30c/bin/bin/../../lib/libc-coff.a(memcmp.XXo)
 __c30_signature
                  0x005248          0x6 /Applications/microchip/mplabc30/v3.30c/bin/bin/../../lib/libc-coff.a(memset.XXo)
 __c30_signature
                  0x00524e          0x6 /Applications/microchip/mplabc30/v3.30c/bin/bin/../../lib/libc-coff.a(sprintf_cdnopuxX.XXo)
 __c30_signature
                  0x005254          0x6 /Applications/microchip/mplabc30/v3.30c/bin/bin/../../lib/libc-coff.a(strncpy.XXo)
 __c30_signature
                  0x00525a          0x6 /Applications/microchip/mplabc30/v3.30c/bin/bin/../../lib/libc-coff.a(strlen.XXo)
 __c30_signature
                  0x005260          0x6 /Applications/microchip/mplabc30/v3.30c/bin/bin/../../lib/libc-coff.a(strcpy.XXo)
 __c30_signature
                  0x005266          0x6 /Applications/microchip/mplabc30/v3.30c/bin/bin/../../lib/libc-coff.a(malloc.XXo)
 __c30_signature
                  0x00526c          0x6 /Applications/microchip/mplabc30/v3.30c/bin/bin/../../lib/libc-coff.a(strncmp.XXo)
 __c30_signature
                  0x005272          0x6 /Applications/microchip/mplabc30/v3.30c/bin/bin/../../lib/libc-coff.a(printf_cdnopsuxX.XXo)
 __c30_signature
                  0x005278          0x6 /Applications/microchip/mplabc30/v3.30c/bin/bin/../../lib/libc-coff.a(putchar.XXo)
 __c30_signature
                  0x00527e          0x6 /Applications/microchip/mplabc30/v3.30c/bin/bin/../../lib/libc-coff.a(_iob.XXo)
 __c30_signature
                  0x005284          0x6 /Applications/microchip/mplabc30/v3.30c/bin/bin/../../lib/libc-coff.a(doprnt_cdnopsuxX.XXo)
 __c30_signature
                  0x00528a          0x6 /Applications/microchip/mplabc30/v3.30c/bin/bin/../../lib/libc-coff.a(fputc.XXo)
 __c30_signature
                  0x005290          0x6 /Applications/microchip/mplabc30/v3.30c/bin/bin/../../lib/libc-coff.a(flsbuf.XXo)
 __c30_signature
                  0x005296          0x6 /Applications/microchip/mplabc30/v3.30c/bin/bin/../../lib/libpic30-coff.a(sbrk.o)
 __c30_signature
                  0x00529c          0x6 /Applications/microchip/mplabc30/v3.30c/bin/bin/../../lib/libpic30-coff.a(write.o)
 __c30_signature
                  0x0052a2          0x6 /Applications/microchip/mplabc30/v3.30c/bin/bin/../../lib/libpic30-coff.a(brk.o)
 __c30_signature
                  0x0052a8          0x6 /Applications/microchip/mplabc30/v3.30c/bin/bin/../../lib/libpic30-coff.a(c30_uart.o)
 __c30_signature
                  0x0052ae          0x6 /Applications/microchip/mplabc30/v3.30c/bin/bin/../../lib/libm-coff.a(divmoddi3.o)

.nbss               0x0800       0x139e
 .nbss              0x0800        0x858 build/IOIO0023/production/uart.o
 .nbss              0x1058        0x666 build/IOIO0023/production/spi.o
 .nbss              0x16be        0x4e0 build/IOIO0023/production/i2c.o
                    0x16be                  i2c_states

.ndata              0x1b9e         0xfe
 .ndata             0x1b9e         0x86 build/IOIO0023/production/pins.o
                    0x1b9e                  pin_to_rpor
                    0x1c00                  CNBACKUPG
                    0x1c02                  CNBACKUPF
                    0x1c04                  CNBACKUPE
                    0x1c06                  CNBACKUPD
                    0x1c08                  CNBACKUPC
                    0x1c0a                  CNBACKUPB
                    0x1c0c                  CNFORCEG
                    0x1c0e                  CNFORCEF
                    0x1c10                  CNFORCEE
                    0x1c12                  CNFORCED
                    0x1c14                  CNFORCEC
                    0x1c16                  CNFORCEB
                    0x1c18                  CNENG
                    0x1c1a                  CNENF
                    0x1c1c                  CNENE
                    0x1c1e                  CNEND
                    0x1c20                  CNENC
                    0x1c22                  CNENB
 .ndata             0x1c24         0x78 build/IOIO0023/production/main.o
                    0x1c24                  accessoryDescs

.nbss               0x1c9c         0x4c
 .nbss              0x1c9c         0x4c build/IOIO0023/production/icsp.o

.ndata              0x1ce8         0x38
 .ndata             0x1ce8         0x38 build/IOIO0023/production/incap.o

.nbss               0x1d20         0x38
 .nbss              0x1d20         0x38 build/IOIO0023/production/incap.o

.ndata              0x1d58         0x68
 .ndata             0x1d58         0x38 build/IOIO0023/production/uart.o
                    0x1d58                  uart_reg
 .ndata             0x1d90         0x18 build/IOIO0023/production/i2c.o
                    0x1d90                  i2c_reg
 .ndata             0x1da8         0x18 build/IOIO0023/production/spi.o
                    0x1da8                  spi_reg

.nbss               0x1dc0         0x24
 .nbss              0x1dc0          0xc build/IOIO0023/production/protocol.o
 .nbss              0x1dcc          0xc build/IOIO0023/production/rgb_led_matrix.o
 .nbss              0x1dd8          0xc build/IOIO0023/production/pixel.o

.ndata              0x1de4         0x12
 .ndata             0x1de4          0xa build/IOIO0023/production/protocol.o
 .ndata             0x1dee          0x8 build/IOIO0023/production/rgb_led_matrix.o

.nbss               0x1df6          0x8
 .nbss              0x1df6          0x4 build/IOIO0023/production/adc.o
 .nbss              0x1dfa          0x4 build/IOIO0023/production/main.o

.bss                0x2000       0x4e96
 .bss               0x2000       0x160a build/IOIO0023/production/protocol.o
 .bss               0x360a       0x1036 ../libadb/dist/PIC24FJ256DA206/production/libadb.a(adb_packet.o)
 .bss               0x4640        0xd98 ../libsdcard.X/dist/PIC24FJ256DA206/production/libsdcard.X.a(FSIO.o)
                    0x4640                  defaultArray
                    0x464a                  tempDirectoryString
                    0x4854                  utf16Filename
                    0x4856                  fileNameLength
                    0x4858                  asciiFilename
                    0x485a                  gDiskData
                    0x487e                  cwd
                    0x48ba                  gFileTemp
                    0x48f6                  tempCWDobj
                    0x4932                  dirCleared
                    0x4934                  TempClusterCalc
                    0x4938                  FSerrno
                    0x493a                  FatRootDirClusterValue
                    0x493e                  gTimeWrtDate
                    0x4940                  gTimeWrtTime
                    0x4942                  gTimeAccDate
                    0x4944                  gTimeCrtDate
                    0x4946                  gTimeCrtTime
                    0x4948                  gTimeCrtMS
                    0x494a                  fileFoundString
                    0x4b54                  recordSearchLength
                    0x4b56                  recordFoundName
                    0x4d58                  recordSearchName
                    0x4f5a                  lfnData
                    0x535e                  gFileSlotOpen
                    0x5360                  gFileArray
 .bss               0x53d8        0xc00 build/IOIO0023/production/rgb_led_matrix.o
 .bss               0x5fd8        0x600 build/IOIO0023/production/pixel.o
                    0x5fd8                  frame
 .bss               0x65d8        0x406 ../libconn/dist/PIC24FJ256DA206/production/libconn.a(connection.o)
 .bss               0x69de        0x2a6 ../libadb/dist/PIC24FJ256DA206/production/libadb.a(adb.o)
 .bss               0x6c84        0x212 ../libbtstack/dist/PIC24FJ256DA206/production/libbtstack.a(btstack_memory.o)

_03851e7052b53dc7
                    0x6e98        0x200
 _03851e7052b53dc7
                    0x6e98        0x200 ../libsdcard.X/dist/PIC24FJ256DA206/production/libsdcard.X.a(FSIO.o)
                    0x6e98                  gFATBuffer

_03851d2052b53dc7
                    0x7098        0x200
 _03851d2052b53dc7
                    0x7098        0x200 ../libsdcard.X/dist/PIC24FJ256DA206/production/libsdcard.X.a(FSIO.o)
                    0x7098                  gDataBuffer

.bss                0x1dfe        0x122
 .bss               0x1dfe        0x122 ../libbtstack/dist/PIC24FJ256DA206/production/libbtstack.a(hci.o)

.bss                0x7298        0x104
 .bss               0x7298        0x104 ../libbtstack/dist/PIC24FJ256DA206/production/libbtstack.a(sdp.o)

.data               0x1f20         0xd8
 .data              0x1f20         0xa0 /Applications/microchip/mplabc30/v3.30c/bin/bin/../../lib/libc-coff.a(doprnt_cdnopsuxX.XXo)
 .data              0x1fc0         0x38 ../libusb/dist/PIC24FJ256DA206/production/libusb.a(usb_config.o)
                    0x1fc0                  usbTPL
                    0x1fe0                  usbClientDrvTable

.dconst             0x739c         0x2a
 .dconst            0x739c         0x2a /Applications/microchip/mplabc30/v3.30c/bin/bin/../../lib/libc-coff.a(doprnt_cdnopsuxX.XXo)

.data               0x73c6         0x26
 .data              0x73c6         0x26 /Applications/microchip/mplabc30/v3.30c/bin/bin/../../lib/libc-coff.a(_iob.XXo)
                    0x73c6                  _Files
                    0x73c8                  _iob

.bss                0x73ec         0x40
 .bss               0x73ec         0x22 ../libusb/dist/PIC24FJ256DA206/production/libusb.a(usb_host_bluetooth.o)
                    0x73ec                  gc_BluetoothDevData
 .bss               0x740e         0x1e ../libbtstack/dist/PIC24FJ256DA206/production/libbtstack.a(l2cap.o)

.data               0x742c         0x1a
 .data              0x742c         0x1a ../libbtstack/dist/PIC24FJ256DA206/production/libbtstack.a(l2cap_signaling.o)
                    0x742c                  source_cid
                    0x742e                  sig_seq_nr

.bss                0x7446         0x28
 .bss               0x7446         0x16 ../libbtstack/dist/PIC24FJ256DA206/production/libbtstack.a(hci_transport_mchpusb.o)
 .bss               0x745c         0x12 ../libbtstack/dist/PIC24FJ256DA206/production/libbtstack.a(utils.o)

_03870230526da3c6
                    0x7600         0x10
 _03870230526da3c6
                    0x7600         0x10 ../libusb/dist/PIC24FJ256DA206/production/libusb.a(usb_host.o)

.bss                0x746e         0xce
 .bss               0x746e         0xce ../libadb/dist/PIC24FJ256DA206/production/libadb.a(adb_file.o)

_00d85a8052b53dc6
                    0x753c         0x80
 _00d85a8052b53dc6
                    0x753c         0x80 ../libconn/dist/PIC24FJ256DA206/production/libconn.a(bt_app.o)

.bss                0x75bc         0x3c
 .bss               0x75bc         0x3c ../libsdcard.X/dist/PIC24FJ256DA206/production/libsdcard.X.a(SD-SPI.o)
                    0x75dc                  gSDMode
                    0x75de                  gMediaSectorSize
                    0x75e0                  MDD_SDSPI_finalLBA

.bss                0x7610         0x2c
 .bss               0x7610         0x2c ../libusb/dist/PIC24FJ256DA206/production/libusb.a(usb_host.o)
                    0x7614                  usbOverrideHostState

.dconst             0x763c         0x20
 .dconst            0x763c         0x20 ../libconn/dist/PIC24FJ256DA206/production/libconn.a(bt_app.o)

.bss                0x765c         0x1a
 .bss               0x765c         0x1a ../libusb/dist/PIC24FJ256DA206/production/libusb.a(usb_host_android.o)
                    0x765c                  gc_DevData

.data               0x7676         0x26
 .data              0x7676         0x16 ../libsdcard.X/dist/PIC24FJ256DA206/production/libsdcard.X.a(FSIO.o)
                    0x7676                  twoByteMode
                    0x7678                  utfModeFileName
                    0x767a                  cwdptr
                    0x767c                  recache
                    0x767d                  gBufferZeroed
                    0x767e                  nextClusterIsLast
                    0x767f                  gNeedDataWrite
                    0x7680                  gLastDataSectorRead
                    0x7684                  gBufferOwner
                    0x7686                  gNeedFATWrite
                    0x7688                  gLastFATSectorRead
 .data              0x768c         0x10 ../libconn/dist/PIC24FJ256DA206/production/libconn.a(bt_app.o)

.bss                0x769c         0x10
 .bss               0x769c         0x10 /Applications/microchip/mplabc30/v3.30c/bin/bin/../../lib/libc-coff.a(malloc.XXo)
                    0x769c                  _allocx
                    0x76a0                  _alloct
                    0x76a2                  _allocp
                    0x76a4                  _allocs

.data               0x76ac          0xc
 .data              0x76ac          0xc ../libadb/dist/PIC24FJ256DA206/production/libadb.a(adb.o)

.bss                0x76b8          0xa
 .bss               0x76b8          0xa ../libbtstack/dist/PIC24FJ256DA206/production/libbtstack.a(rfcomm.o)

.bss                0x75f8          0x8
 .bss               0x75f8          0x8 ../libconn/dist/PIC24FJ256DA206/production/libconn.a(accessory.o)

.bss                0x1ff8          0x6
 .bss               0x1ff8          0x6 ../libconn/dist/PIC24FJ256DA206/production/libconn.a(bt_app.o)

.dconst             0x76c2          0x6
 .dconst            0x76c2          0x6 ../libadb/dist/PIC24FJ256DA206/production/libadb.a(adb_file.o)

.bss                0x76c8          0x6
 .bss               0x76c8          0x6 /Applications/microchip/mplabc30/v3.30c/bin/bin/../../lib/libc-coff.a(_iob.XXo)
                    0x76c8                  _sobuf
                    0x76ca                  _sibuf
                    0x76cc                  _outdone

.data               0x76ce          0xc
 .data              0x76ce          0x4 ../libusb/dist/PIC24FJ256DA206/production/libusb.a(usb_host.o)
                    0x76ce                  pDeviceDescriptor
                    0x76d0                  pCurrentConfigurationDescriptor
 .data              0x76d2          0x4 ../libbtstack/dist/PIC24FJ256DA206/production/libbtstack.a(remote_device_db_memory.o)
                    0x76d2                  db_mem_names
                    0x76d4                  db_mem_link_keys
 .data              0x76d6          0x4 ../libbtstack/dist/PIC24FJ256DA206/production/libbtstack.a(sdp.o)

.data               0x6e96          0x2
 .data              0x6e96          0x2 ../libconn/dist/PIC24FJ256DA206/production/libconn.a(accessory.o)

.bss                0x76da          0x2
 .bss               0x76da          0x2 ../libbtstack/dist/PIC24FJ256DA206/production/libbtstack.a(remote_device_db_memory.o)

.data               0x76dc          0x2
 .data              0x76dc          0x2 ../libbtstack/dist/PIC24FJ256DA206/production/libbtstack.a(l2cap.o)

.bss                0x76de          0x2
 .bss               0x76de          0x2 /Applications/microchip/mplabc30/v3.30c/bin/bin/../../lib/libpic30-coff.a(brk.o)
                    0x76de                  __curbrk

.data               0x76e0          0x2
 .data              0x76e0          0x2 /Applications/microchip/mplabc30/v3.30c/bin/bin/../../lib/libpic30-coff.a(c30_uart.o)
                    0x76e0                  __C30_UART

.heap               0x76e2        0x600
 .heap              0x76e2        0x600 heap

.const              0xe2f2        0xb9c load address 0x0062f2  
 .const             0xe2f2        0x690 build/IOIO0023/production/pins.o
                    0xe2f2                  pin_to_rpin
                    0xe324                  cn_info
                    0xe50e                  port_info
 .const             0xe982        0x18e ../libbtstack/dist/PIC24FJ256DA206/production/libbtstack.a(hci_cmds.o)
                    0xe984                  rfcomm_persistent_channel_for_service
                    0xe98c                  rfcomm_decline_connection
                    0xe992                  rfcomm_accept_connection
                    0xe996                  rfcomm_unregister_service
                    0xe99e                  rfcomm_register_service_with_initial_credits
                    0xe9a6                  rfcomm_register_service
                    0xe9aa                  rfcomm_disconnect
                    0xe9ae                  rfcomm_grants_credits
                    0xe9b8                  rfcomm_create_channel_with_initial_credits
                    0xe9c0                  rfcomm_create_channel
                    0xe9c6                  sdp_unregister_service_record
                    0xe9cc                  sdp_register_service_record
                    0xe9d0                  l2cap_decline_connection
                    0xe9d4                  l2cap_accept_connection
                    0xe9d8                  l2cap_unregister_service
                    0xe9e0                  l2cap_register_service
                    0xe9e4                  l2cap_disconnect
                    0xe9ec                  l2cap_create_channel_mtu
                    0xe9f4                  l2cap_create_channel
                    0xe9fa                  btstack_set_bluetooth_enabled
                    0xe9fe                  btstack_set_discoverable
                    0xea02                  btstack_set_system_bluetooth_enabled
                    0xea08                  btstack_get_system_bluetooth_enabled
                    0xea0c                  btstack_get_version
                    0xea10                  btstack_set_acl_capture_mode
                    0xea14                  btstack_set_power_mode
                    0xea18                  btstack_get_state
                    0xea1c                  hci_read_bd_addr
                    0xea20                  hci_read_buffer_size
                    0xea24                  hci_read_local_supported_features
                    0xea2c                  hci_write_le_host_supported
                    0xea30                  hci_read_le_host_supported
                    0xea34                  hci_write_simple_pairing_mode
                    0xea3c                  hci_write_extended_inquiry_response
                    0xea40                  hci_write_inquiry_mode
                    0xea48                  hci_write_link_supervision_timeout
                    0xea4e                  hci_read_link_supervision_timeout
                    0xea58                  hci_host_buffer_size
                    0xea5c                  hci_write_num_broadcast_retransmissions
                    0xea60                  hci_read_num_broadcast_retransmissions
                    0xea66                  hci_write_class_of_device
                    0xea6a                  hci_write_authentication_enable
                    0xea6e                  hci_write_scan_enable
                    0xea72                  hci_write_page_timeout
                    0xea76                  hci_write_local_name
                    0xea7a                  hci_delete_stored_link_key
                    0xea7e                  hci_reset
                    0xea86                  hci_set_event_mask
                    0xea8a                  hci_write_link_policy_settings
                    0xea8e                  hci_read_link_policy_settings
                    0xea92                  hci_switch_role_command
                    0xea96                  hci_role_discovery
                    0xeaa2                  hci_qos_setup
                    0xeaac                  hci_sniff_mode
                    0xeab2                  hci_remote_name_request_cancel
                    0xeabc                  hci_remote_name_request
                    0xeac0                  hci_change_connection_link_key
                    0xeac8                  hci_set_connection_encryption
                    0xeacc                  hci_authentication_requested
                    0xead0                  hci_pin_code_request_negative_reply
                    0xead8                  hci_pin_code_request_reply
                    0xeadc                  hci_link_key_request_negative_reply
                    0xeae4                  hci_link_key_request_reply
                    0xeae8                  hci_reject_connection_request
                    0xeaec                  hci_accept_connection_request
                    0xeaf0                  hci_create_connection_cancel
                    0xeaf4                  hci_disconnect
                    0xeb00                  hci_create_connection
                    0xeb04                  hci_inquiry_cancel
                    0xeb0c                  hci_inquiry
 .const             0xeb10        0x11e ../libbtstack/dist/PIC24FJ256DA206/production/libbtstack.a(utils.o)
 .const             0xec2e         0x9e ../libbtstack/dist/PIC24FJ256DA206/production/libbtstack.a(sdp_util.o)
                    0xec2e                  sdp_bluetooth_base_uuid
                    0xec68                  type_names
 .const             0xeccc         0x78 ../libsdcard.X/dist/PIC24FJ256DA206/production/libsdcard.X.a(SD-SPI.o)
                    0xeccc                  sdmmc_cmdtable
 .const             0xed44         0x4c build/IOIO0023/production/protocol.o
                    0xed44                  outgoing_arg_size
                    0xed65                  incoming_arg_size
 .const             0xed90         0x38 build/IOIO0023/production/features.o
 .const             0xedc8         0x2c build/IOIO0023/production/pixel.o
 .const             0xedf4         0x20 ../libbtstack/dist/PIC24FJ256DA206/production/libbtstack.a(hci.o)
 .const             0xee14         0x1c build/IOIO0023/production/incap.o
 .const             0xee30         0x16 ../libbtstack/dist/PIC24FJ256DA206/production/libbtstack.a(l2cap_signaling.o)
 .const             0xee46         0x12 ../libbtstack/dist/PIC24FJ256DA206/production/libbtstack.a(remote_device_db_memory.o)
                    0xee46                  remote_device_db_memory
 .const             0xee58         0x10 build/IOIO0023/production/_ext/1537399865/uart2.o
                    0xee58                  CharacterArray
 .const             0xee68          0xa build/IOIO0023/production/main.o
 .const             0xee72          0xa ../libsdcard.X/dist/PIC24FJ256DA206/production/libsdcard.X.a(FSIO.o)
 .const             0xee7c          0x8 build/IOIO0023/production/pwm.o
 .const             0xee84          0x6 build/IOIO0023/production/i2c.o
 .const             0xee8a          0x4 ../libbtstack/dist/PIC24FJ256DA206/production/libbtstack.a(hci_transport_mchpusb.o)

.text             0x006e8e       0x50fe
 .text            0x006e8e       0x50fe ../libsdcard.X/dist/PIC24FJ256DA206/production/libsdcard.X.a(FSIO.o)
                  0x006e8e                  Cluster2Sector
                  0x006ee2                  ReadByte
                  0x006ee8                  ReadWord
                  0x006ef4                  ReadDWord
                  0x006f18                  GetFullClusterNumber
                  0x006f2c                  flushData
                  0x006f60                  FSCreateMBR
                  0x0070b6                  Write_File_Entry
                  0x00713a                  WriteFAT
                  0x007392                  ReadFAT
                  0x0075b2                  Cache_File_Entry
                  0x00775c                  Fill_LFN_Object
                  0x0077a8                  FILEget_next_cluster
                  0x007844                  FAT_erase_cluster_chain
                  0x0078f2                  LoadDirAttrib
                  0x007934                  CacheTime
                  0x0079cc                  PopulateEntries
                  0x007a5c                  FileObjectCopy
                  0x007a6a                  FATfindEmptyCluster
                  0x007b1e                  EraseCluster
                  0x007b92                  FILECreateHeadCluster
                  0x007bee                  CreateFirstCluster
                  0x007c2a                  FILEallocate_new_cluster
                  0x007c8e                  FindEmptyEntries
                  0x007d4e                  FSfclose
                  0x007e0a                  FSfseek
                  0x007f64                  FSftell
                  0x007f6e                  FSrewind
                  0x007f94                  FSerror
                  0x007f9a                  FSattrib
                  0x008004                  FSfwrite
                  0x008208                  FSfeof
                  0x008222                  FSfread
                  0x0083ac                  ValidateChars
                  0x00857c                  FormatFileName
                  0x00877c                  FormatDirName
                  0x00899e                  writeDotEntries
                  0x008a84                  LoadMBR
                  0x008b9a                  LoadBootSector
                  0x008eba                  DISKmount
                  0x008f1e                  FSInit
                  0x008f9e                  FSformat
                  0x0097ac                  Fill_File_Object
                  0x009862                  FILEopen
                  0x009924                  FILEfind
                  0x00a0a4                  FindNext
                  0x00a1f6                  FindFirst
                  0x00a382                  wFindFirst
                  0x00a38e                  Alias_LFN_Object
                  0x00a642                  CreateFileEntry
                  0x00a800                  FILEerase
                  0x00a8de                  eraseDir
                  0x00a944                  FSremove
                  0x00aa1e                  wFSremove
                  0x00aa2a                  FSfopen
                  0x00ac86                  wFSfopen
                  0x00ac92                  FSrename
                  0x00ad66                  wFSrename
                  0x00ad72                  chdirhelper
                  0x00aff2                  wFSchdir
                  0x00b004                  FSchdir
                  0x00b00c                  GetPreviousEntry
                  0x00b21a                  FSgetcwd
                  0x00b5fa                  wFSgetcwd
                  0x00b606                  CreateDIR
                  0x00b6c6                  mkdirhelper
                  0x00b9a8                  wFSmkdir
                  0x00b9ba                  FSmkdir
                  0x00b9c2                  rmdirhelper
                  0x00bf6c                  wFSrmdir
                  0x00bf82                  FSrmdir

.text.USBHostTasks
                  0x00bf8c        0xa1c
 .text.USBHostTasks
                  0x00bf8c        0xa1c ../libusb/dist/PIC24FJ256DA206/production/libusb.a(usb_host.o)
                  0x00bf8c                  USBHostTasks

.text             0x00c9a8       0x2c08
 .text            0x00c9a8        0x8f4 build/IOIO0023/production/protocol.o
                  0x00c9a8                  AppProtocolSendMessageWithVarArgSplit
                  0x00ca0a                  AppProtocolTasks
                  0x00ca94                  AppProtocolSendMessage
                  0x00cad2                  AppProtocolSendMessageWithVarArg
                  0x00cb22                  AppProtocolInit
                  0x00cbbe                  AppProtocolHandleIncoming
 .text            0x00d29c        0x7ae ../libsdcard.X/dist/PIC24FJ256DA206/production/libsdcard.X.a(SD-SPI.o)
                  0x00d29c                  MDD_SDSPI_MediaDetect
                  0x00d2a4                  MDD_SDSPI_ReadSectorSize
                  0x00d2a8                  MDD_SDSPI_ReadCapacity
                  0x00d2ae                  MDD_SDSPI_InitIO
                  0x00d2b4                  CloseSPIM
                  0x00d2b8                  WriteSPIM
                  0x00d2c6                  MDD_SDSPI_ReadMedia
                  0x00d2d6                  SendMMCCmd
                  0x00d39e                  MDD_SDSPI_AsyncReadTasks
                  0x00d516                  MDD_SDSPI_SectorRead
                  0x00d544                  MDD_SDSPI_AsyncWriteTasks
                  0x00d70e                  MDD_SDSPI_SectorWrite
                  0x00d742                  MDD_SDSPI_WriteProtectState
                  0x00d744                  Delayms
                  0x00d760                  OpenSPIM
                  0x00d78a                  InitSPISlowMode
                  0x00d7ae                  MDD_SDSPI_MediaInitialize
                  0x00da44                  MDD_SDSPI_ShutdownMedia
 .text            0x00da4a        0x620 build/IOIO0023/production/spi.o
                  0x00da4a                  build/IOIO0023/production/spi.o:__Set_SPI1IF
                  0x00da5c                  build/IOIO0023/production/spi.o:__Set_SPI2IF
                  0x00da6e                  build/IOIO0023/production/spi.o:__Set_SPI3IF
                  0x00da80                  build/IOIO0023/production/spi.o:__Set_SPI1IE
                  0x00da92                  build/IOIO0023/production/spi.o:__Set_SPI2IE
                  0x00daa4                  build/IOIO0023/production/spi.o:__Set_SPI3IE
                  0x00dab6                  build/IOIO0023/production/spi.o:__Set_SPI1IP
                  0x00dac8                  build/IOIO0023/production/spi.o:__Set_SPI2IP
                  0x00dadc                  build/IOIO0023/production/spi.o:__Set_SPI3IP
                  0x00dc74                  _SPI1Interrupt
                  0x00dc96                  _SPI2Interrupt
                  0x00dcb8                  _SPI3Interrupt
                  0x00dcda                  SPITasks
                  0x00deb0                  SPITransmit
                  0x00e040                  SPIConfigMaster
                  0x00e044                  SPIInit
 .text            0x00e06a        0x614 build/IOIO0023/production/uart.o
                  0x00e06a                  build/IOIO0023/production/uart.o:__Set_U1RXIE
                  0x00e07c                  build/IOIO0023/production/uart.o:__Set_U2RXIE
                  0x00e08e                  build/IOIO0023/production/uart.o:__Set_U3RXIE
                  0x00e0a0                  build/IOIO0023/production/uart.o:__Set_U4RXIE
                  0x00e0b0                  build/IOIO0023/production/uart.o:__Set_U1RXIF
                  0x00e0c2                  build/IOIO0023/production/uart.o:__Set_U2RXIF
                  0x00e0d4                  build/IOIO0023/production/uart.o:__Set_U3RXIF
                  0x00e0e6                  build/IOIO0023/production/uart.o:__Set_U4RXIF
                  0x00e0f6                  build/IOIO0023/production/uart.o:__Set_U1RXIP
                  0x00e10a                  build/IOIO0023/production/uart.o:__Set_U2RXIP
                  0x00e11c                  build/IOIO0023/production/uart.o:__Set_U3RXIP
                  0x00e12e                  build/IOIO0023/production/uart.o:__Set_U4RXIP
                  0x00e140                  build/IOIO0023/production/uart.o:__Set_U1TXIE
                  0x00e152                  build/IOIO0023/production/uart.o:__Set_U2TXIE
                  0x00e162                  build/IOIO0023/production/uart.o:__Set_U3TXIE
                  0x00e174                  build/IOIO0023/production/uart.o:__Set_U4TXIE
                  0x00e186                  build/IOIO0023/production/uart.o:__Set_U1TXIF
                  0x00e198                  build/IOIO0023/production/uart.o:__Set_U2TXIF
                  0x00e1a8                  build/IOIO0023/production/uart.o:__Set_U3TXIF
                  0x00e1ba                  build/IOIO0023/production/uart.o:__Set_U4TXIF
                  0x00e1cc                  build/IOIO0023/production/uart.o:__Set_U1TXIP
                  0x00e1de                  build/IOIO0023/production/uart.o:__Set_U2TXIP
                  0x00e1f2                  build/IOIO0023/production/uart.o:__Set_U3TXIP
                  0x00e206                  build/IOIO0023/production/uart.o:__Set_U4TXIP
                  0x00e21a                  _U4RXInterrupt
                  0x00e25c                  UARTTasks
                  0x00e336                  UARTTransmit
                  0x00e3da                  _U4TXInterrupt
                  0x00e3fc                  _U3TXInterrupt
                  0x00e41e                  _U2TXInterrupt
                  0x00e440                  _U1TXInterrupt
                  0x00e584                  UARTConfig
                  0x00e588                  UARTInit
                  0x00e5b8                  _U1RXInterrupt
                  0x00e5fa                  _U2RXInterrupt
                  0x00e63c                  _U3RXInterrupt
 .text            0x00e67e        0x5ca build/IOIO0023/production/incap.o
                  0x00e67e                  build/IOIO0023/production/incap.o:__Set_IC1IF
                  0x00e690                  build/IOIO0023/production/incap.o:__Set_IC2IF
                  0x00e6a2                  build/IOIO0023/production/incap.o:__Set_IC3IF
                  0x00e6b4                  build/IOIO0023/production/incap.o:__Set_IC4IF
                  0x00e6c6                  build/IOIO0023/production/incap.o:__Set_IC5IF
                  0x00e6d6                  build/IOIO0023/production/incap.o:__Set_IC6IF
                  0x00e6e6                  build/IOIO0023/production/incap.o:__Set_IC7IF
                  0x00e6f8                  build/IOIO0023/production/incap.o:__Set_IC8IF
                  0x00e708                  build/IOIO0023/production/incap.o:__Set_IC9IF
                  0x00e71a                  build/IOIO0023/production/incap.o:__Set_IC1IE
                  0x00e72c                  build/IOIO0023/production/incap.o:__Set_IC2IE
                  0x00e73e                  build/IOIO0023/production/incap.o:__Set_IC3IE
                  0x00e750                  build/IOIO0023/production/incap.o:__Set_IC4IE
                  0x00e762                  build/IOIO0023/production/incap.o:__Set_IC5IE
                  0x00e772                  build/IOIO0023/production/incap.o:__Set_IC6IE
                  0x00e782                  build/IOIO0023/production/incap.o:__Set_IC7IE
                  0x00e794                  build/IOIO0023/production/incap.o:__Set_IC8IE
                  0x00e7a4                  build/IOIO0023/production/incap.o:__Set_IC9IE
                  0x00e7b6                  build/IOIO0023/production/incap.o:__Set_IC1IP
                  0x00e7ca                  build/IOIO0023/production/incap.o:__Set_IC2IP
                  0x00e7de                  build/IOIO0023/production/incap.o:__Set_IC3IP
                  0x00e7f2                  build/IOIO0023/production/incap.o:__Set_IC4IP
                  0x00e804                  build/IOIO0023/production/incap.o:__Set_IC5IP
                  0x00e818                  build/IOIO0023/production/incap.o:__Set_IC6IP
                  0x00e82a                  build/IOIO0023/production/incap.o:__Set_IC7IP
                  0x00e83c                  build/IOIO0023/production/incap.o:__Set_IC8IP
                  0x00e850                  build/IOIO0023/production/incap.o:__Set_IC9IP
                  0x00e864                  _T5Interrupt
                  0x00e9ae                  _IC9Interrupt
                  0x00e9d0                  _IC8Interrupt
                  0x00e9f2                  _IC7Interrupt
                  0x00ea14                  _IC6Interrupt
                  0x00ea36                  _IC5Interrupt
                  0x00ea58                  _IC4Interrupt
                  0x00ea7a                  _IC3Interrupt
                  0x00ea9c                  _IC2Interrupt
                  0x00eabe                  _IC1Interrupt
                  0x00ec12                  InCapConfig
                  0x00ec16                  InCapInit
 .text            0x00ec48        0x53e build/IOIO0023/production/i2c.o
                  0x00ec48                  build/IOIO0023/production/i2c.o:__Set_MI2C1IF
                  0x00ec5a                  build/IOIO0023/production/i2c.o:__Set_MI2C2IF
                  0x00ec6c                  build/IOIO0023/production/i2c.o:__Set_MI2C3IF
                  0x00ec7e                  build/IOIO0023/production/i2c.o:__Set_MI2C1IE
                  0x00ec90                  build/IOIO0023/production/i2c.o:__Set_MI2C2IE
                  0x00eca2                  build/IOIO0023/production/i2c.o:__Set_MI2C3IE
                  0x00ecb4                  build/IOIO0023/production/i2c.o:__Set_MI2C1IP
                  0x00ecc8                  build/IOIO0023/production/i2c.o:__Set_MI2C2IP
                  0x00ecda                  build/IOIO0023/production/i2c.o:__Set_MI2C3IP
                  0x00ee82                  _MI2C1Interrupt
                  0x00eea4                  _MI2C2Interrupt
                  0x00eec6                  _MI2C3Interrupt
                  0x00eee8                  I2CTasks
                  0x00f006                  I2CWriteRead
                  0x00f162                  I2CConfigMaster
                  0x00f166                  I2CInit
 .text            0x00f186        0x42a build/IOIO0023/production/features.o
                  0x00f186                  SetPinDigitalIn
                  0x00f1ec                  SetPinDigitalOut
                  0x00f22c                  SetPinPwm
                  0x00f242                  SetPinUart
                  0x00f2da                  SetPinInCap
                  0x00f3f0                  SetPinAnalogIn
                  0x00f420                  SetPinSpi
                  0x00f4b6                  HardReset
                  0x00f4ba                  CheckInterface
                  0x00f520                  SoftReset

.dinit            0x00f5b0        0x3ca
 .dinit           0x00f5b0        0x3ca data_init

.text.rfcomm_channel_state_machine
                  0x00f97a        0x384
 .text.rfcomm_channel_state_machine
                  0x00f97a        0x384 ../libbtstack/dist/PIC24FJ256DA206/production/libbtstack.a(rfcomm.o)

.text.packet_handler
                  0x00fcfe        0x36a
 .text.packet_handler
                  0x00fcfe        0x36a ../libbtstack/dist/PIC24FJ256DA206/production/libbtstack.a(hci.o)
                  0x00fcfe                  packet_handler

.text.rfcomm_packet_handler
                  0x010068        0x30c
 .text.rfcomm_packet_handler
                  0x010068        0x30c ../libbtstack/dist/PIC24FJ256DA206/production/libbtstack.a(rfcomm.o)
                  0x010068                  rfcomm_packet_handler

.text             0x010374        0x2e2
 .text            0x010374        0x2e2 build/IOIO0023/production/icsp.o
                  0x010374                  ICSPExit
                  0x01038a                  ICSPConfigure
                  0x0103e2                  ICSPTasks
                  0x010446                  ICSPRegout
                  0x0104d8                  ICSPEnter
                  0x0105c0                  ICSPSix

.text.ADBTasks    0x010656        0x292
 .text.ADBTasks
                  0x010656        0x292 ../libadb/dist/PIC24FJ256DA206/production/libadb.a(adb.o)
                  0x010656                  ADBTasks

.text             0x0108e8        0x258
 .text            0x0108e8        0x258 build/IOIO0023/production/_ext/1537399865/uart2.o
                  0x0108e8                  UART2GetBaudError
                  0x0108ea                  UART2GetChar
                  0x0108f8                  UART2Init
                  0x01090c                  UART2IsPressed
                  0x010914                  UART2PutChar
                  0x010922                  UART2Char2Hex
                  0x010962                  UART2Hex2Char
                  0x010974                  UART2ClrError
                  0x01097e                  UART2PrintString
                  0x01099c                  UART2PutDec
                  0x010a22                  UART2PutHex
                  0x010a4a                  UART2PutHexWord
                  0x010a94                  UART2PutHexDWord

.text._USB_ParseConfigurationDescriptor
                  0x010b40        0x258
 .text._USB_ParseConfigurationDescriptor
                  0x010b40        0x258 ../libusb/dist/PIC24FJ256DA206/production/libusb.a(usb_host.o)
                  0x010b40                  _USB_ParseConfigurationDescriptor

.text             0x010d98        0x490
 .text            0x010d98        0x24e build/IOIO0023/production/digital.o
                  0x010d98                  SetChangeNotify
                  0x010dd8                  SetDigitalOutLevel
                  0x010e02                  _CNInterrupt
 .text            0x010fe6        0x242 build/IOIO0023/production/adc.o
                  0x010fe6                  _T3Interrupt
                  0x01107a                  _CRCInterrupt
                  0x011106                  _ADC1Interrupt
                  0x01111a                  ADCInit
                  0x011154                  ADCSetScan

.text.l2cap_run
                  0x011228        0x242
 .text.l2cap_run
                  0x011228        0x242 ../libbtstack/dist/PIC24FJ256DA206/production/libbtstack.a(l2cap.o)
                  0x011228                  l2cap_run

.text             0x01146a        0x238
 .text            0x01146a        0x238 build/IOIO0023/production/rgb_led_matrix.o
                  0x01146a                  RgbLedMatrixEnable
                  0x0114d8                  RgbLedMatrixFrame
                  0x0114f6                  RgbLedMatrixFrameSize
                  0x0114fe                  _T4Interrupt

.text._USB_FindNextToken
                  0x0116a2        0x222
 .text._USB_FindNextToken
                  0x0116a2        0x222 ../libusb/dist/PIC24FJ256DA206/production/libusb.a(usb_host.o)
                  0x0116a2                  _USB_FindNextToken

.text.hci_run     0x0118c4        0x21e
 .text.hci_run    0x0118c4        0x21e ../libbtstack/dist/PIC24FJ256DA206/production/libbtstack.a(hci.o)
                  0x0118c4                  hci_run

.text             0x011ae2        0x3b4
 .text            0x011ae2        0x218 build/IOIO0023/production/pixel.o
                  0x011b60                  PixelInit
                  0x011b62                  PixelTasks
                  0x011b96                  PixelFrame
                  0x011bb8                  PixelPlayFile
                  0x011bec                  PixelInteractive
                  0x011c4c                  PixelWriteFile
 .text            0x011cfa        0x19c build/IOIO0023/production/byte_queue.o
                  0x011cfa                  ByteQueueOverflow
                  0x011cfc                  ByteQueuePullByte
                  0x011d28                  ByteQueuePeekMax
                  0x011d4e                  ByteQueuePull
                  0x011d68                  ByteQueuePeek
                  0x011d86                  ByteQueuePushByte
                  0x011db6                  ByteQueuePushBuffer
                  0x011e26                  ByteQueuePullToBuffer

.text.sdp_create_spp_service
                  0x011e96        0x192
 .text.sdp_create_spp_service
                  0x011e96        0x192 ../libbtstack/dist/PIC24FJ256DA206/production/libbtstack.a(sdp_util.o)
                  0x011e96                  sdp_create_spp_service

.text             0x012028        0x188
 .text            0x012028        0x188 build/IOIO0023/production/pins.o
                  0x012028                  PinSetTris
                  0x012042                  PinSetAnsel
                  0x01205c                  PinSetLat
                  0x012076                  PinGetPort
                  0x012088                  PinSetOdc
                  0x0120a2                  PinSetCnen
                  0x0120ee                  PinSetCnforce
                  0x012110                  PinSetCnpu
                  0x01212a                  PinSetCnpd
                  0x012144                  PinSetRpor
                  0x012154                  PinFromPortB
                  0x01215c                  PinFromPortC
                  0x012166                  PinFromPortD
                  0x012170                  PinFromPortE
                  0x01217a                  PinFromPortF
                  0x012184                  PinFromPortG
                  0x01218e                  PinFromAnalogChannel
                  0x012196                  PinToAnalogChannel
                  0x0121a8                  PinToRpin

.text.l2cap_event_handler
                  0x0121b0        0x180
 .text.l2cap_event_handler
                  0x0121b0        0x180 ../libbtstack/dist/PIC24FJ256DA206/production/libbtstack.a(l2cap.o)
                  0x0121b0                  l2cap_event_handler

.text.sdp_handle_service_search_attribute_request
                  0x012330        0x17c
 .text.sdp_handle_service_search_attribute_request
                  0x012330        0x17c ../libbtstack/dist/PIC24FJ256DA206/production/libbtstack.a(sdp.o)
                  0x012330                  sdp_handle_service_search_attribute_request

.text.l2cap_signaling_handler_dispatch
                  0x0124ac        0x17a
 .text.l2cap_signaling_handler_dispatch
                  0x0124ac        0x17a ../libbtstack/dist/PIC24FJ256DA206/production/libbtstack.a(l2cap.o)
                  0x0124ac                  l2cap_signaling_handler_dispatch

.text.ADBFileCallback
                  0x012626        0x13c
 .text.ADBFileCallback
                  0x012626        0x13c ../libadb/dist/PIC24FJ256DA206/production/libadb.a(adb_file.o)
                  0x012626                  adb_file.o:_ADBFileCallback

.text.hci_create_cmd_internal
                  0x012762        0x122
 .text.hci_create_cmd_internal
                  0x012762        0x122 ../libbtstack/dist/PIC24FJ256DA206/production/libbtstack.a(hci_cmds.o)
                  0x012762                  hci_create_cmd_internal

.text.de_traversal_dump_data
                  0x012884        0x122
 .text.de_traversal_dump_data
                  0x012884        0x122 ../libbtstack/dist/PIC24FJ256DA206/production/libbtstack.a(sdp_util.o)
                  0x012884                  sdp_util.o:_de_traversal_dump_data

.text.ADBPacketTasks
                  0x0129a6        0x11a
 .text.ADBPacketTasks
                  0x0129a6        0x11a ../libadb/dist/PIC24FJ256DA206/production/libadb.a(adb_packet.o)
                  0x0129a6                  ADBPacketTasks

.text.sdp_handle_service_attribute_request
                  0x012ac0        0x118
 .text.sdp_handle_service_attribute_request
                  0x012ac0        0x118 ../libbtstack/dist/PIC24FJ256DA206/production/libbtstack.a(sdp.o)
                  0x012ac0                  sdp_handle_service_attribute_request

.text.rfcomm_channel_packet_handler
                  0x012bd8        0x112
 .text.rfcomm_channel_packet_handler
                  0x012bd8        0x112 ../libbtstack/dist/PIC24FJ256DA206/production/libbtstack.a(rfcomm.o)
                  0x012bd8                  rfcomm_channel_packet_handler

.text.sdp_handle_service_search_request
                  0x012cea        0x106
 .text.sdp_handle_service_search_request
                  0x012cea        0x106 ../libbtstack/dist/PIC24FJ256DA206/production/libbtstack.a(sdp.o)
                  0x012cea                  sdp_handle_service_search_request

.text.PacketHandler
                  0x012df0        0x100
 .text.PacketHandler
                  0x012df0        0x100 ../libconn/dist/PIC24FJ256DA206/production/libconn.a(bt_app.o)
                  0x012df0                  bt_app.o:_PacketHandler

.text._USB_SetBDT
                  0x012ef0         0xf4
 .text._USB_SetBDT
                  0x012ef0         0xf4 ../libusb/dist/PIC24FJ256DA206/production/libusb.a(usb_host.o)
                  0x012ef0                  _USB_SetBDT

.text.hci_send_cmd_packet
                  0x012fe4         0xf2
 .text.hci_send_cmd_packet
                  0x012fe4         0xf2 ../libbtstack/dist/PIC24FJ256DA206/production/libbtstack.a(hci.o)
                  0x012fe4                  hci_send_cmd_packet

.text.hci_power_control
                  0x0130d6         0xe6
 .text.hci_power_control
                  0x0130d6         0xe6 ../libbtstack/dist/PIC24FJ256DA206/production/libbtstack.a(hci.o)
                  0x0130d6                  hci_power_control

.text.USBHostIssueDeviceRequest
                  0x0131bc         0xdc
 .text.USBHostIssueDeviceRequest
                  0x0131bc         0xdc ../libusb/dist/PIC24FJ256DA206/production/libusb.a(usb_host.o)
                  0x0131bc                  USBHostIssueDeviceRequest

.text.l2cap_signaling_handler_channel
                  0x013298         0xda
 .text.l2cap_signaling_handler_channel
                  0x013298         0xda ../libbtstack/dist/PIC24FJ256DA206/production/libbtstack.a(l2cap.o)
                  0x013298                  l2cap_signaling_handler_channel

.text             0x013372         0xd4
 .text            0x013372         0xd4 build/IOIO0023/production/main.o
                  0x013372                  AppCallback
                  0x013392                  main

.text.USBHostBluetoothInit
                  0x013446         0xc2
 .text.USBHostBluetoothInit
                  0x013446         0xc2 ../libusb/dist/PIC24FJ256DA206/production/libusb.a(usb_host_bluetooth.o)
                  0x013446                  USBHostBluetoothInit

.text.USBHostBluetoothTasks
                  0x013508         0xc2
 .text.USBHostBluetoothTasks
                  0x013508         0xc2 ../libusb/dist/PIC24FJ256DA206/production/libusb.a(usb_host_bluetooth.o)
                  0x013508                  USBHostBluetoothTasks

.text.AccessoryTasks
                  0x0135ca         0xbc
 .text.AccessoryTasks
                  0x0135ca         0xbc ../libconn/dist/PIC24FJ256DA206/production/libconn.a(accessory.o)
                  0x0135ca                  AccessoryTasks

.text.sdp_packet_handler
                  0x013686         0xbc
 .text.sdp_packet_handler
                  0x013686         0xbc ../libbtstack/dist/PIC24FJ256DA206/production/libbtstack.a(sdp.o)
                  0x013686                  sdp.o:_sdp_packet_handler

.text.rfcomm_send_packet_for_multiplexer
                  0x013742         0xa6
 .text.rfcomm_send_packet_for_multiplexer
                  0x013742         0xa6 ../libbtstack/dist/PIC24FJ256DA206/production/libbtstack.a(rfcomm.o)

.text.l2cap_create_signaling_internal
                  0x0137e8         0xa2
 .text.l2cap_create_signaling_internal
                  0x0137e8         0xa2 ../libbtstack/dist/PIC24FJ256DA206/production/libbtstack.a(l2cap_signaling.o)
                  0x0137e8                  l2cap_create_signaling_internal

.text.sdp_register_service_internal
                  0x01388a         0x9c
 .text.sdp_register_service_internal
                  0x01388a         0x9c ../libbtstack/dist/PIC24FJ256DA206/production/libbtstack.a(sdp.o)
                  0x01388a                  sdp_register_service_internal

.text.l2cap_acl_handler
                  0x013926         0x9a
 .text.l2cap_acl_handler
                  0x013926         0x9a ../libbtstack/dist/PIC24FJ256DA206/production/libbtstack.a(l2cap.o)
                  0x013926                  l2cap_acl_handler

.text.rfcomm_run
                  0x0139c0         0x96
 .text.rfcomm_run
                  0x0139c0         0x96 ../libbtstack/dist/PIC24FJ256DA206/production/libbtstack.a(rfcomm.o)

.text.ConnectionTasks
                  0x013a56         0x8c
 .text.ConnectionTasks
                  0x013a56         0x8c ../libconn/dist/PIC24FJ256DA206/production/libconn.a(connection.o)
                  0x013a56                  ConnectionTasks

.text._USB_FindDeviceLevelClientDriver
                  0x013ae2         0x8c
 .text._USB_FindDeviceLevelClientDriver
                  0x013ae2         0x8c ../libusb/dist/PIC24FJ256DA206/production/libusb.a(usb_host.o)
                  0x013ae2                  _USB_FindDeviceLevelClientDriver

.text._USB_FindClassDriver
                  0x013b6e         0x8c
 .text._USB_FindClassDriver
                  0x013b6e         0x8c ../libusb/dist/PIC24FJ256DA206/production/libusb.a(usb_host.o)
                  0x013b6e                  _USB_FindClassDriver

.text.rfcomm_channel_create
                  0x013bfa         0x8c
 .text.rfcomm_channel_create
                  0x013bfa         0x8c ../libbtstack/dist/PIC24FJ256DA206/production/libbtstack.a(rfcomm.o)

.text._USB_FindServiceEndpoint
                  0x013c86         0x86
 .text._USB_FindServiceEndpoint
                  0x013c86         0x86 ../libusb/dist/PIC24FJ256DA206/production/libusb.a(usb_host.o)
                  0x013c86                  _USB_FindServiceEndpoint

.text.rfcomm_create_channel2
                  0x013d0c         0x80
 .text.rfcomm_create_channel2
                  0x013d0c         0x80 ../libbtstack/dist/PIC24FJ256DA206/production/libbtstack.a(rfcomm.o)
                  0x013d0c                  rfcomm_create_channel2

.text.l2cap_create_channel_internal
                  0x013d8c         0x7c
 .text.l2cap_create_channel_internal
                  0x013d8c         0x7c ../libbtstack/dist/PIC24FJ256DA206/production/libbtstack.a(l2cap.o)
                  0x013d8c                  l2cap_create_channel_internal

.text.l2cap_send_prepared
                  0x013e08         0x78
 .text.l2cap_send_prepared
                  0x013e08         0x78 ../libbtstack/dist/PIC24FJ256DA206/production/libbtstack.a(l2cap.o)
                  0x013e08                  l2cap_send_prepared

.text.rfcomm_register_service2
                  0x013e80         0x76
 .text.rfcomm_register_service2
                  0x013e80         0x76 ../libbtstack/dist/PIC24FJ256DA206/production/libbtstack.a(rfcomm.o)
                  0x013e80                  rfcomm_register_service2

.text.sdp_traversal_filter_attributes
                  0x013ef6         0x76
 .text.sdp_traversal_filter_attributes
                  0x013ef6         0x76 ../libbtstack/dist/PIC24FJ256DA206/production/libbtstack.a(sdp_util.o)
                  0x013ef6                  sdp_util.o:_sdp_traversal_filter_attributes

.text.l2cap_emit_channel_opened
                  0x013f6c         0x72
 .text.l2cap_emit_channel_opened
                  0x013f6c         0x72 ../libbtstack/dist/PIC24FJ256DA206/production/libbtstack.a(l2cap.o)

.text.ADBOpen     0x013fde         0x6e
 .text.ADBOpen    0x013fde         0x6e ../libadb/dist/PIC24FJ256DA206/production/libadb.a(adb.o)
                  0x013fde                  ADBOpen

.text.sdp_attribute_list_traverse_sequence
                  0x01404c         0x6e
 .text.sdp_attribute_list_traverse_sequence
                  0x01404c         0x6e ../libbtstack/dist/PIC24FJ256DA206/production/libbtstack.a(sdp_util.o)

.text.rfcomm_send_internal
                  0x0140ba         0x6c
 .text.rfcomm_send_internal
                  0x0140ba         0x6c ../libbtstack/dist/PIC24FJ256DA206/production/libbtstack.a(rfcomm.o)
                  0x0140ba                  rfcomm_send_internal

.text.de_add_number
                  0x014126         0x6c
 .text.de_add_number
                  0x014126         0x6c ../libbtstack/dist/PIC24FJ256DA206/production/libbtstack.a(sdp_util.o)
                  0x014126                  de_add_number

.text.USBHostRead
                  0x014192         0x6a
 .text.USBHostRead
                  0x014192         0x6a ../libusb/dist/PIC24FJ256DA206/production/libusb.a(usb_host.o)
                  0x014192                  USBHostRead

.text.USBHostWrite
                  0x0141fc         0x6a
 .text.USBHostWrite
                  0x0141fc         0x6a ../libusb/dist/PIC24FJ256DA206/production/libusb.a(usb_host.o)
                  0x0141fc                  USBHostWrite

.text.sdp_traversal_append_attributes
                  0x014266         0x68
 .text.sdp_traversal_append_attributes
                  0x014266         0x68 ../libbtstack/dist/PIC24FJ256DA206/production/libbtstack.a(sdp_util.o)
                  0x014266                  sdp_util.o:_sdp_traversal_append_attributes

.text.USBHostAndroidTasks
                  0x0142ce         0x64
 .text.USBHostAndroidTasks
                  0x0142ce         0x64 ../libusb/dist/PIC24FJ256DA206/production/libusb.a(usb_host_android.o)
                  0x0142ce                  USBHostAndroidTasks

.text.rfcomm_hand_out_credits
                  0x014332         0x64
 .text.rfcomm_hand_out_credits
                  0x014332         0x64 ../libbtstack/dist/PIC24FJ256DA206/production/libbtstack.a(rfcomm.o)

.text.de_get_normalized_uuid
                  0x014396         0x64
 .text.de_get_normalized_uuid
                  0x014396         0x64 ../libbtstack/dist/PIC24FJ256DA206/production/libbtstack.a(sdp_util.o)
                  0x014396                  de_get_normalized_uuid

.text.rfcomm_emit_channel_opened
                  0x0143fa         0x62
 .text.rfcomm_emit_channel_opened
                  0x0143fa         0x62 ../libbtstack/dist/PIC24FJ256DA206/production/libbtstack.a(rfcomm.o)

.text.USBHostAndroidInitInterface
                  0x01445c         0x60
 .text.USBHostAndroidInitInterface
                  0x01445c         0x60 ../libusb/dist/PIC24FJ256DA206/production/libusb.a(usb_host_android.o)
                  0x01445c                  USBHostAndroidInitInterface

.text.USBHostTransferIsComplete
                  0x0144bc         0x60
 .text.USBHostTransferIsComplete
                  0x0144bc         0x60 ../libusb/dist/PIC24FJ256DA206/production/libusb.a(usb_host.o)
                  0x0144bc                  USBHostTransferIsComplete

.text.rfcomm_channel_state_machine_2
                  0x01451c         0x5e
 .text.rfcomm_channel_state_machine_2
                  0x01451c         0x5e ../libbtstack/dist/PIC24FJ256DA206/production/libbtstack.a(rfcomm.o)

.text._USB_NotifyClients
                  0x01457a         0x5c
 .text._USB_NotifyClients
                  0x01457a         0x5c ../libusb/dist/PIC24FJ256DA206/production/libusb.a(usb_host.o)
                  0x01457a                  _USB_NotifyClients

.text.l2cap_register_service_internal
                  0x0145d6         0x5c
 .text.l2cap_register_service_internal
                  0x0145d6         0x5c ../libbtstack/dist/PIC24FJ256DA206/production/libbtstack.a(l2cap.o)
                  0x0145d6                  l2cap_register_service_internal

.text.de_get_data_size
                  0x014632         0x5c
 .text.de_get_data_size
                  0x014632         0x5c ../libbtstack/dist/PIC24FJ256DA206/production/libbtstack.a(sdp_util.o)
                  0x014632                  de_get_data_size

.text.rfcomm_emit_channel_open_failed_outgoing_memory
                  0x01468e         0x5a
 .text.rfcomm_emit_channel_open_failed_outgoing_memory
                  0x01468e         0x5a ../libbtstack/dist/PIC24FJ256DA206/production/libbtstack.a(rfcomm.o)

.text.rfcomm_multiplexer_finalize
                  0x0146e8         0x5a
 .text.rfcomm_multiplexer_finalize
                  0x0146e8         0x5a ../libbtstack/dist/PIC24FJ256DA206/production/libbtstack.a(rfcomm.o)

.text.USBHostBluetoothCallback
                  0x014742         0x5a
 .text.USBHostBluetoothCallback
                  0x014742         0x5a ../libbtstack/dist/PIC24FJ256DA206/production/libbtstack.a(hci_transport_mchpusb.o)
                  0x014742                  USBHostBluetoothCallback

.text.l2cap_send_prepared_connectionless
                  0x01479c         0x5a
 .text.l2cap_send_prepared_connectionless
                  0x01479c         0x5a ../libbtstack/dist/PIC24FJ256DA206/production/libbtstack.a(l2cap.o)
                  0x01479c                  l2cap_send_prepared_connectionless

.text.ADBFileRead
                  0x0147f6         0x58
 .text.ADBFileRead
                  0x0147f6         0x58 ../libadb/dist/PIC24FJ256DA206/production/libadb.a(adb_file.o)
                  0x0147f6                  ADBFileRead

.text._USB_InitRead
                  0x01484e         0x58
 .text._USB_InitRead
                  0x01484e         0x58 ../libusb/dist/PIC24FJ256DA206/production/libusb.a(usb_host.o)
                  0x01484e                  _USB_InitRead

.text._USB_InitWrite
                  0x0148a6         0x58
 .text._USB_InitWrite
                  0x0148a6         0x58 ../libusb/dist/PIC24FJ256DA206/production/libusb.a(usb_host.o)
                  0x0148a6                  _USB_InitWrite

.text.put_name    0x0148fe         0x58
 .text.put_name
                  0x0148fe         0x58 ../libbtstack/dist/PIC24FJ256DA206/production/libbtstack.a(remote_device_db_memory.o)
                  0x0148fe                  remote_device_db_memory.o:_put_name

.text.persistent_rfcomm_channel
                  0x014956         0x58
 .text.persistent_rfcomm_channel
                  0x014956         0x58 ../libbtstack/dist/PIC24FJ256DA206/production/libbtstack.a(remote_device_db_memory.o)
                  0x014956                  remote_device_db_memory.o:_persistent_rfcomm_channel

.text.de_add_data
                  0x0149ae         0x58
 .text.de_add_data
                  0x0149ae         0x58 ../libbtstack/dist/PIC24FJ256DA206/production/libbtstack.a(sdp_util.o)
                  0x0149ae                  de_add_data

.text._USB_InitControlWrite
                  0x014a06         0x54
 .text._USB_InitControlWrite
                  0x014a06         0x54 ../libusb/dist/PIC24FJ256DA206/production/libusb.a(usb_host.o)
                  0x014a06                  _USB_InitControlWrite

.text.btstack_memory_init
                  0x014a5a         0x54
 .text.btstack_memory_init
                  0x014a5a         0x54 ../libbtstack/dist/PIC24FJ256DA206/production/libbtstack.a(btstack_memory.o)
                  0x014a5a                  btstack_memory_init

.text.BTInit      0x014aae         0x52
 .text.BTInit     0x014aae         0x52 ../libconn/dist/PIC24FJ256DA206/production/libconn.a(bt_app.o)
                  0x014aae                  BTInit

.text.USBHostBluetoothWrite
                  0x014b00         0x52
 .text.USBHostBluetoothWrite
                  0x014b00         0x52 ../libusb/dist/PIC24FJ256DA206/production/libusb.a(usb_host_bluetooth.o)

.text.ADBFileTasks
                  0x014b52         0x50
 .text.ADBFileTasks
                  0x014b52         0x50 ../libadb/dist/PIC24FJ256DA206/production/libadb.a(adb_file.o)
                  0x014b52                  ADBFileTasks

.text.put_link_key
                  0x014ba2         0x50
 .text.put_link_key
                  0x014ba2         0x50 ../libbtstack/dist/PIC24FJ256DA206/production/libbtstack.a(remote_device_db_memory.o)
                  0x014ba2                  remote_device_db_memory.o:_put_link_key

.text._USB_FreeConfigMemory
                  0x014bf2         0x4c
 .text._USB_FreeConfigMemory
                  0x014bf2         0x4c ../libusb/dist/PIC24FJ256DA206/production/libusb.a(usb_host.o)
                  0x014bf2                  _USB_FreeConfigMemory

.text.hci_emit_remote_name_cached
                  0x014c3e         0x4c
 .text.hci_emit_remote_name_cached
                  0x014c3e         0x4c ../libbtstack/dist/PIC24FJ256DA206/production/libbtstack.a(hci.o)
                  0x014c3e                  hci_emit_remote_name_cached

.text.sdp_get_service_record_handle
                  0x014c8a         0x4c
 .text.sdp_get_service_record_handle
                  0x014c8a         0x4c ../libbtstack/dist/PIC24FJ256DA206/production/libbtstack.a(sdp.o)
                  0x014c8a                  sdp_get_service_record_handle

.text.sdp_traversal_attributeID_search
                  0x014cd6         0x4c
 .text.sdp_traversal_attributeID_search
                  0x014cd6         0x4c ../libbtstack/dist/PIC24FJ256DA206/production/libbtstack.a(sdp_util.o)
                  0x014cd6                  sdp_util.o:_sdp_traversal_attributeID_search

.text.de_traverse_sequence
                  0x014d22         0x4c
 .text.de_traverse_sequence
                  0x014d22         0x4c ../libbtstack/dist/PIC24FJ256DA206/production/libbtstack.a(sdp_util.o)

.text.rfcomm_emit_connection_request
                  0x014d6e         0x4a
 .text.rfcomm_emit_connection_request
                  0x014d6e         0x4a ../libbtstack/dist/PIC24FJ256DA206/production/libbtstack.a(rfcomm.o)

.text.rfcomm_multiplexer_create_for_addr
                  0x014db8         0x4a
 .text.rfcomm_multiplexer_create_for_addr
                  0x014db8         0x4a ../libbtstack/dist/PIC24FJ256DA206/production/libbtstack.a(rfcomm.o)

.text             0x014e02         0x48
 .text            0x014e02         0x48 build/IOIO0023/production/pwm.o
                  0x014e02                  SetPwmPeriod
                  0x014e22                  SetPwmDutyCycle
                  0x014e3c                  PWMInit

.text.ConnAccessoryTasks
                  0x014e4a         0x48
 .text.ConnAccessoryTasks
                  0x014e4a         0x48 ../libconn/dist/PIC24FJ256DA206/production/libconn.a(connection.o)
                  0x014e4a                  ConnAccessoryTasks

.text._USB_InitControlRead
                  0x014e92         0x48
 .text._USB_InitControlRead
                  0x014e92         0x48 ../libusb/dist/PIC24FJ256DA206/production/libusb.a(usb_host.o)
                  0x014e92                  _USB_InitControlRead

.text.sdp_traversal_set_attribute_for_id
                  0x014eda         0x48
 .text.sdp_traversal_set_attribute_for_id
                  0x014eda         0x48 ../libbtstack/dist/PIC24FJ256DA206/production/libbtstack.a(sdp_util.o)
                  0x014eda                  sdp_util.o:_sdp_traversal_set_attribute_for_id

.text.hci_send_acl_packet
                  0x014f22         0x46
 .text.hci_send_acl_packet
                  0x014f22         0x46 ../libbtstack/dist/PIC24FJ256DA206/production/libbtstack.a(hci.o)
                  0x014f22                  hci_send_acl_packet

.text.hci_emit_connection_complete
                  0x014f68         0x44
 .text.hci_emit_connection_complete
                  0x014f68         0x44 ../libbtstack/dist/PIC24FJ256DA206/production/libbtstack.a(hci.o)
                  0x014f68                  hci_emit_connection_complete

.text.l2cap_handle_connection_failed_for_addr
                  0x014fac         0x44
 .text.l2cap_handle_connection_failed_for_addr
                  0x014fac         0x44 ../libbtstack/dist/PIC24FJ256DA206/production/libbtstack.a(l2cap.o)

.text.l2cap_signaling_handle_configure_request
                  0x014ff0         0x42
 .text.l2cap_signaling_handle_configure_request
                  0x014ff0         0x42 ../libbtstack/dist/PIC24FJ256DA206/production/libbtstack.a(l2cap.o)
                  0x014ff0                  l2cap_signaling_handle_configure_request

.text.ADBPacketSend
                  0x015032         0x40
 .text.ADBPacketSend
                  0x015032         0x40 ../libadb/dist/PIC24FJ256DA206/production/libadb.a(adb_packet.o)
                  0x015032                  ADBPacketSend

.text.create_connection_for_addr
                  0x015072         0x40
 .text.create_connection_for_addr
                  0x015072         0x40 ../libbtstack/dist/PIC24FJ256DA206/production/libbtstack.a(hci.o)

.text.l2cap_emit_credits
                  0x0150b2         0x40
 .text.l2cap_emit_credits
                  0x0150b2         0x40 ../libbtstack/dist/PIC24FJ256DA206/production/libbtstack.a(l2cap.o)
                  0x0150b2                  l2cap_emit_credits

.text.sdp_traversal_contains_UUID128
                  0x0150f2         0x40
 .text.sdp_traversal_contains_UUID128
                  0x0150f2         0x40 ../libbtstack/dist/PIC24FJ256DA206/production/libbtstack.a(sdp_util.o)
                  0x0150f2                  sdp_util.o:_sdp_traversal_contains_UUID128

.text._USB_SendToken
                  0x015132         0x3e
 .text._USB_SendToken
                  0x015132         0x3e ../libusb/dist/PIC24FJ256DA206/production/libusb.a(usb_host.o)
                  0x015132                  _USB_SendToken

.text.hci_emit_disconnection_complete
                  0x015170         0x3e
 .text.hci_emit_disconnection_complete
                  0x015170         0x3e ../libbtstack/dist/PIC24FJ256DA206/production/libbtstack.a(hci.o)
                  0x015170                  hci_emit_disconnection_complete

.text._USB_ResetDATA0
                  0x0151ae         0x3c
 .text._USB_ResetDATA0
                  0x0151ae         0x3c ../libusb/dist/PIC24FJ256DA206/production/libusb.a(usb_host.o)
                  0x0151ae                  _USB_ResetDATA0

.text.USBHostSetDeviceConfiguration
                  0x0151ea         0x3c
 .text.USBHostSetDeviceConfiguration
                  0x0151ea         0x3c ../libusb/dist/PIC24FJ256DA206/production/libusb.a(usb_host.o)
                  0x0151ea                  USBHostSetDeviceConfiguration

.text._USB_FreeMemory
                  0x015226         0x3c
 .text._USB_FreeMemory
                  0x015226         0x3c ../libusb/dist/PIC24FJ256DA206/production/libusb.a(usb_host.o)
                  0x015226                  _USB_FreeMemory

.text.hci_init    0x015262         0x3c
 .text.hci_init
                  0x015262         0x3c ../libbtstack/dist/PIC24FJ256DA206/production/libbtstack.a(hci.o)
                  0x015262                  hci_init

.text.rfcomm_close_connection
                  0x01529e         0x3c
 .text.rfcomm_close_connection
                  0x01529e         0x3c ../libbtstack/dist/PIC24FJ256DA206/production/libbtstack.a(rfcomm.o)
                  0x01529e                  rfcomm_close_connection

.text.l2cap_hand_out_credits
                  0x0152da         0x3c
 .text.l2cap_hand_out_credits
                  0x0152da         0x3c ../libbtstack/dist/PIC24FJ256DA206/production/libbtstack.a(l2cap.o)
                  0x0152da                  l2cap_hand_out_credits

.text.l2cap_send_signaling_packet
                  0x015316         0x3c
 .text.l2cap_send_signaling_packet
                  0x015316         0x3c ../libbtstack/dist/PIC24FJ256DA206/production/libbtstack.a(l2cap.o)
                  0x015316                  l2cap_send_signaling_packet

.text.l2cap_close_connection
                  0x015352         0x3c
 .text.l2cap_close_connection
                  0x015352         0x3c ../libbtstack/dist/PIC24FJ256DA206/production/libbtstack.a(l2cap.o)
                  0x015352                  l2cap_close_connection

.text.spd_append_range
                  0x01538e         0x3c
 .text.spd_append_range
                  0x01538e         0x3c ../libbtstack/dist/PIC24FJ256DA206/production/libbtstack.a(sdp_util.o)

.text.USBHostAndroidRead
                  0x0153ca         0x3a
 .text.USBHostAndroidRead
                  0x0153ca         0x3a ../libusb/dist/PIC24FJ256DA206/production/libusb.a(usb_host_android.o)
                  0x0153ca                  USBHostAndroidRead

.text.rfcomm_unregister_service_internal
                  0x015404         0x3a
 .text.rfcomm_unregister_service_internal
                  0x015404         0x3a ../libbtstack/dist/PIC24FJ256DA206/production/libbtstack.a(rfcomm.o)
                  0x015404                  rfcomm_unregister_service_internal

.text.get_name    0x01543e         0x3a
 .text.get_name
                  0x01543e         0x3a ../libbtstack/dist/PIC24FJ256DA206/production/libbtstack.a(remote_device_db_memory.o)
                  0x01543e                  remote_device_db_memory.o:_get_name

.text.get_link_key
                  0x015478         0x3a
 .text.get_link_key
                  0x015478         0x3a ../libbtstack/dist/PIC24FJ256DA206/production/libbtstack.a(remote_device_db_memory.o)
                  0x015478                  remote_device_db_memory.o:_get_link_key

.text.l2cap_send_connectionless
                  0x0154b2         0x3a
 .text.l2cap_send_connectionless
                  0x0154b2         0x3a ../libbtstack/dist/PIC24FJ256DA206/production/libbtstack.a(l2cap.o)
                  0x0154b2                  l2cap_send_connectionless

.text.rfcomm_emit_channel_closed
                  0x0154ec         0x38
 .text.rfcomm_emit_channel_closed
                  0x0154ec         0x38 ../libbtstack/dist/PIC24FJ256DA206/production/libbtstack.a(rfcomm.o)

.text.rfcomm_accept_connection_internal
                  0x015524         0x38
 .text.rfcomm_accept_connection_internal
                  0x015524         0x38 ../libbtstack/dist/PIC24FJ256DA206/production/libbtstack.a(rfcomm.o)
                  0x015524                  rfcomm_accept_connection_internal

.text.l2cap_emit_service_registered
                  0x01555c         0x38
 .text.l2cap_emit_service_registered
                  0x01555c         0x38 ../libbtstack/dist/PIC24FJ256DA206/production/libbtstack.a(l2cap.o)

.text.de_add_uuid128
                  0x015594         0x38
 .text.de_add_uuid128
                  0x015594         0x38 ../libbtstack/dist/PIC24FJ256DA206/production/libbtstack.a(sdp_util.o)
                  0x015594                  de_add_uuid128

.text.USBHostAndroidInitDevice
                  0x0155cc         0x36
 .text.USBHostAndroidInitDevice
                  0x0155cc         0x36 ../libusb/dist/PIC24FJ256DA206/production/libusb.a(usb_host_android.o)
                  0x0155cc                  USBHostAndroidInitDevice

.text.USBHostAndroidWrite
                  0x015602         0x36
 .text.USBHostAndroidWrite
                  0x015602         0x36 ../libusb/dist/PIC24FJ256DA206/production/libusb.a(usb_host_android.o)
                  0x015602                  USBHostAndroidWrite

.text.USBHostDeviceStatus
                  0x015638         0x36
 .text.USBHostDeviceStatus
                  0x015638         0x36 ../libusb/dist/PIC24FJ256DA206/production/libusb.a(usb_host.o)
                  0x015638                  USBHostDeviceStatus

.text.USBHostInit
                  0x01566e         0x36
 .text.USBHostInit
                  0x01566e         0x36 ../libusb/dist/PIC24FJ256DA206/production/libusb.a(usb_host.o)
                  0x01566e                  USBHostInit

.text.USBHostShutdown
                  0x0156a4         0x36
 .text.USBHostShutdown
                  0x0156a4         0x36 ../libusb/dist/PIC24FJ256DA206/production/libusb.a(usb_host.o)
                  0x0156a4                  USBHostShutdown

.text.l2cap_emit_channel_closed
                  0x0156da         0x36
 .text.l2cap_emit_channel_closed
                  0x0156da         0x36 ../libbtstack/dist/PIC24FJ256DA206/production/libbtstack.a(l2cap.o)

.text.l2cap_unregister_service_internal
                  0x015710         0x36
 .text.l2cap_unregister_service_internal
                  0x015710         0x36 ../libbtstack/dist/PIC24FJ256DA206/production/libbtstack.a(l2cap.o)
                  0x015710                  l2cap_unregister_service_internal

.text.l2cap_send_internal
                  0x015746         0x36
 .text.l2cap_send_internal
                  0x015746         0x36 ../libbtstack/dist/PIC24FJ256DA206/production/libbtstack.a(l2cap.o)
                  0x015746                  l2cap_send_internal

.text.ADBPacketRecvStatus
                  0x01577c         0x34
 .text.ADBPacketRecvStatus
                  0x01577c         0x34 ../libadb/dist/PIC24FJ256DA206/production/libadb.a(adb_packet.o)
                  0x01577c                  ADBPacketRecvStatus

.text._USB_CheckCommandAndEnumerationAttempts
                  0x0157b0         0x34
 .text._USB_CheckCommandAndEnumerationAttempts
                  0x0157b0         0x34 ../libusb/dist/PIC24FJ256DA206/production/libusb.a(usb_host.o)
                  0x0157b0                  _USB_CheckCommandAndEnumerationAttempts

.text.hci_emit_nr_connections_changed
                  0x0157e4         0x34
 .text.hci_emit_nr_connections_changed
                  0x0157e4         0x34 ../libbtstack/dist/PIC24FJ256DA206/production/libbtstack.a(hci.o)
                  0x0157e4                  hci_emit_nr_connections_changed

.text.rfcomm_can_send
                  0x015818         0x34
 .text.rfcomm_can_send
                  0x015818         0x34 ../libbtstack/dist/PIC24FJ256DA206/production/libbtstack.a(rfcomm.o)
                  0x015818                  rfcomm_can_send

.text.ADBReset    0x01584c         0x32
 .text.ADBReset
                  0x01584c         0x32 ../libadb/dist/PIC24FJ256DA206/production/libadb.a(adb.o)

.text._USB_TransferInProgress
                  0x01587e         0x32
 .text._USB_TransferInProgress
                  0x01587e         0x32 ../libusb/dist/PIC24FJ256DA206/production/libusb.a(usb_host.o)
                  0x01587e                  _USB_TransferInProgress

.text.USBHostSetNAKTimeout
                  0x0158b0         0x32
 .text.USBHostSetNAKTimeout
                  0x0158b0         0x32 ../libusb/dist/PIC24FJ256DA206/production/libusb.a(usb_host.o)
                  0x0158b0                  USBHostSetNAKTimeout

.text.bd_addr_to_str
                  0x0158e2         0x32
 .text.bd_addr_to_str
                  0x0158e2         0x32 ../libbtstack/dist/PIC24FJ256DA206/production/libbtstack.a(utils.o)
                  0x0158e2                  bd_addr_to_str

.text.rfcomm_emit_service_registered
                  0x015914         0x32
 .text.rfcomm_emit_service_registered
                  0x015914         0x32 ../libbtstack/dist/PIC24FJ256DA206/production/libbtstack.a(rfcomm.o)

.text.ConnectionCanOpenChannel
                  0x015946         0x30
 .text.ConnectionCanOpenChannel
                  0x015946         0x30 ../libconn/dist/PIC24FJ256DA206/production/libconn.a(connection.o)
                  0x015946                  ConnectionCanOpenChannel

.text._USB_FindEndpoint
                  0x015976         0x30
 .text._USB_FindEndpoint
                  0x015976         0x30 ../libusb/dist/PIC24FJ256DA206/production/libusb.a(usb_host.o)
                  0x015976                  _USB_FindEndpoint

.text.hci_can_send_packet_now
                  0x0159a6         0x30
 .text.hci_can_send_packet_now
                  0x0159a6         0x30 ../libbtstack/dist/PIC24FJ256DA206/production/libbtstack.a(hci.o)
                  0x0159a6                  hci_can_send_packet_now

.text.rfcomm_multiplexer_opened
                  0x0159d6         0x30
 .text.rfcomm_multiplexer_opened
                  0x0159d6         0x30 ../libbtstack/dist/PIC24FJ256DA206/production/libbtstack.a(rfcomm.o)

.text.sdp_create_service_record_handle
                  0x015a06         0x30
 .text.sdp_create_service_record_handle
                  0x015a06         0x30 ../libbtstack/dist/PIC24FJ256DA206/production/libbtstack.a(sdp.o)
                  0x015a06                  sdp_create_service_record_handle

.text.USBHostBluetoothEventHandler
                  0x015a36         0x2e
 .text.USBHostBluetoothEventHandler
                  0x015a36         0x2e ../libusb/dist/PIC24FJ256DA206/production/libusb.a(usb_host_bluetooth.o)
                  0x015a36                  USBHostBluetoothEventHandler

.text.hci_emit_l2cap_check_timeout
                  0x015a64         0x2e
 .text.hci_emit_l2cap_check_timeout
                  0x015a64         0x2e ../libbtstack/dist/PIC24FJ256DA206/production/libbtstack.a(hci.o)
                  0x015a64                  hci_emit_l2cap_check_timeout

.text.l2cap_register_signaling_response
                  0x015a92         0x2e
 .text.l2cap_register_signaling_response
                  0x015a92         0x2e ../libbtstack/dist/PIC24FJ256DA206/production/libbtstack.a(l2cap.o)

.text.sdp_create_error_response
                  0x015ac0         0x2e
 .text.sdp_create_error_response
                  0x015ac0         0x2e ../libbtstack/dist/PIC24FJ256DA206/production/libbtstack.a(sdp.o)
                  0x015ac0                  sdp_create_error_response

.text.sdp_traversal_match_pattern
                  0x015aee         0x2e
 .text.sdp_traversal_match_pattern
                  0x015aee         0x2e ../libbtstack/dist/PIC24FJ256DA206/production/libbtstack.a(sdp_util.o)
                  0x015aee                  sdp_traversal_match_pattern

.text.ConnectionTypeSupported
                  0x015b1c         0x2c
 .text.ConnectionTypeSupported
                  0x015b1c         0x2c ../libconn/dist/PIC24FJ256DA206/production/libconn.a(connection.o)
                  0x015b1c                  ConnectionTypeSupported

.text.USBHostBluetoothRead
                  0x015b48         0x2c
 .text.USBHostBluetoothRead
                  0x015b48         0x2c ../libusb/dist/PIC24FJ256DA206/production/libusb.a(usb_host_bluetooth.o)

.text.USBHostClearEndpointErrors
                  0x015b74         0x2a
 .text.USBHostClearEndpointErrors
                  0x015b74         0x2a ../libusb/dist/PIC24FJ256DA206/production/libusb.a(usb_host.o)
                  0x015b74                  USBHostClearEndpointErrors

.text.rfcomm_send_uih_msc_rsp
                  0x015b9e         0x2a
 .text.rfcomm_send_uih_msc_rsp
                  0x015b9e         0x2a ../libbtstack/dist/PIC24FJ256DA206/production/libbtstack.a(rfcomm.o)

.text.rfcomm_channel_send_credits
                  0x015bc8         0x2a
 .text.rfcomm_channel_send_credits
                  0x015bc8         0x2a ../libbtstack/dist/PIC24FJ256DA206/production/libbtstack.a(rfcomm.o)

.text.hci_transport_mchpusb_instance
                  0x015bf2         0x2a
 .text.hci_transport_mchpusb_instance
                  0x015bf2         0x2a ../libbtstack/dist/PIC24FJ256DA206/production/libbtstack.a(hci_transport_mchpusb.o)
                  0x015bf2                  hci_transport_mchpusb_instance

.text.sdp_filter_attributes_in_attributeIDList
                  0x015c1c         0x2a
 .text.sdp_filter_attributes_in_attributeIDList
                  0x015c1c         0x2a ../libbtstack/dist/PIC24FJ256DA206/production/libbtstack.a(sdp_util.o)
                  0x015c1c                  sdp_filter_attributes_in_attributeIDList

.text.AccessoryCanWrite
                  0x015c46         0x28
 .text.AccessoryCanWrite
                  0x015c46         0x28 ../libconn/dist/PIC24FJ256DA206/production/libconn.a(accessory.o)
                  0x015c46                  AccessoryCanWrite

.text.USBHostVbusEvent
                  0x015c6e         0x28
 .text.USBHostVbusEvent
                  0x015c6e         0x28 ../libusb/dist/PIC24FJ256DA206/production/libusb.a(usb_host.o)
                  0x015c6e                  USBHostVbusEvent

.text.hci_emit_state
                  0x015c96         0x28
 .text.hci_emit_state
                  0x015c96         0x28 ../libbtstack/dist/PIC24FJ256DA206/production/libbtstack.a(hci.o)
                  0x015c96                  hci_emit_state

.text.hci_authentication_active_for_handle
                  0x015cbe         0x28
 .text.hci_authentication_active_for_handle
                  0x015cbe         0x28 ../libbtstack/dist/PIC24FJ256DA206/production/libbtstack.a(hci.o)
                  0x015cbe                  hci_authentication_active_for_handle

.text.sdp_unregister_service_internal
                  0x015ce6         0x28
 .text.sdp_unregister_service_internal
                  0x015ce6         0x28 ../libbtstack/dist/PIC24FJ256DA206/production/libbtstack.a(sdp.o)
                  0x015ce6                  sdp_unregister_service_internal

.text.ConnectionSend
                  0x015d0e         0x26
 .text.ConnectionSend
                  0x015d0e         0x26 ../libconn/dist/PIC24FJ256DA206/production/libconn.a(connection.o)
                  0x015d0e                  ConnectionSend

.text.connection_for_address
                  0x015d34         0x26
 .text.connection_for_address
                  0x015d34         0x26 ../libbtstack/dist/PIC24FJ256DA206/production/libbtstack.a(hci.o)

.text.hci_emit_discoverable_enabled
                  0x015d5a         0x26
 .text.hci_emit_discoverable_enabled
                  0x015d5a         0x26 ../libbtstack/dist/PIC24FJ256DA206/production/libbtstack.a(hci.o)
                  0x015d5a                  hci_emit_discoverable_enabled

.text.hci_emit_system_bluetooth_enabled
                  0x015d80         0x26
 .text.hci_emit_system_bluetooth_enabled
                  0x015d80         0x26 ../libbtstack/dist/PIC24FJ256DA206/production/libbtstack.a(hci.o)
                  0x015d80                  hci_emit_system_bluetooth_enabled

.text.hci_add_connection_flags_for_flipped_bd_addr
                  0x015da6         0x26
 .text.hci_add_connection_flags_for_flipped_bd_addr
                  0x015da6         0x26 ../libbtstack/dist/PIC24FJ256DA206/production/libbtstack.a(hci.o)

.text.rfcomm_multiplexer_for_addr
                  0x015dcc         0x26
 .text.rfcomm_multiplexer_for_addr
                  0x015dcc         0x26 ../libbtstack/dist/PIC24FJ256DA206/production/libbtstack.a(rfcomm.o)

.text.rfcomm_grant_credits
                  0x015df2         0x26
 .text.rfcomm_grant_credits
                  0x015df2         0x26 ../libbtstack/dist/PIC24FJ256DA206/production/libbtstack.a(rfcomm.o)
                  0x015df2                  rfcomm_grant_credits

.text.usb_send_packet
                  0x015e18         0x26
 .text.usb_send_packet
                  0x015e18         0x26 ../libbtstack/dist/PIC24FJ256DA206/production/libbtstack.a(hci_transport_mchpusb.o)
                  0x015e18                  hci_transport_mchpusb.o:_usb_send_packet

.text.de_store_descriptor_with_len
                  0x015e3e         0x26
 .text.de_store_descriptor_with_len
                  0x015e3e         0x26 ../libbtstack/dist/PIC24FJ256DA206/production/libbtstack.a(sdp_util.o)
                  0x015e3e                  de_store_descriptor_with_len

.text.sdp_traversal_get_filtered_size
                  0x015e64         0x26
 .text.sdp_traversal_get_filtered_size
                  0x015e64         0x26 ../libbtstack/dist/PIC24FJ256DA206/production/libbtstack.a(sdp_util.o)
                  0x015e64                  sdp_util.o:_sdp_traversal_get_filtered_size

.text.ConnectionCanSend
                  0x015e8a         0x24
 .text.ConnectionCanSend
                  0x015e8a         0x24 ../libconn/dist/PIC24FJ256DA206/production/libconn.a(connection.o)
                  0x015e8a                  ConnectionCanSend

.text.ADBChecksum
                  0x015eae         0x24
 .text.ADBChecksum
                  0x015eae         0x24 ../libadb/dist/PIC24FJ256DA206/production/libadb.a(adb_packet.o)

.text.get_item    0x015ed2         0x24
 .text.get_item
                  0x015ed2         0x24 ../libbtstack/dist/PIC24FJ256DA206/production/libbtstack.a(remote_device_db_memory.o)

.text.sdp_try_respond
                  0x015ef6         0x24
 .text.sdp_try_respond
                  0x015ef6         0x24 ../libbtstack/dist/PIC24FJ256DA206/production/libbtstack.a(sdp.o)

.text.ADBFileClose
                  0x015f1a         0x22
 .text.ADBFileClose
                  0x015f1a         0x22 ../libadb/dist/PIC24FJ256DA206/production/libadb.a(adb_file.o)
                  0x015f1a                  ADBFileClose

.text.USBHostAndroidEventHandler
                  0x015f3c         0x22
 .text.USBHostAndroidEventHandler
                  0x015f3c         0x22 ../libusb/dist/PIC24FJ256DA206/production/libusb.a(usb_host_android.o)
                  0x015f3c                  USBHostAndroidEventHandler

.text.USBHostTerminateTransfer
                  0x015f5e         0x22
 .text.USBHostTerminateTransfer
                  0x015f5e         0x22 ../libusb/dist/PIC24FJ256DA206/production/libusb.a(usb_host.o)
                  0x015f5e                  USBHostTerminateTransfer

.text.crc8_check
                  0x015f80         0x22
 .text.crc8_check
                  0x015f80         0x22 ../libbtstack/dist/PIC24FJ256DA206/production/libbtstack.a(utils.o)
                  0x015f80                  crc8_check

.text.hci_emit_hci_open_failed
                  0x015fa2         0x22
 .text.hci_emit_hci_open_failed
                  0x015fa2         0x22 ../libbtstack/dist/PIC24FJ256DA206/production/libbtstack.a(hci.o)
                  0x015fa2                  hci_emit_hci_open_failed

.text.hci_shutdown_connection
                  0x015fc4         0x22
 .text.hci_shutdown_connection
                  0x015fc4         0x22 ../libbtstack/dist/PIC24FJ256DA206/production/libbtstack.a(hci.o)

.text.rfcomm_channel_accept_pn
                  0x015fe6         0x22
 .text.rfcomm_channel_accept_pn
                  0x015fe6         0x22 ../libbtstack/dist/PIC24FJ256DA206/production/libbtstack.a(rfcomm.o)

.text.rfcomm_decline_connection_internal
                  0x016008         0x22
 .text.rfcomm_decline_connection_internal
                  0x016008         0x22 ../libbtstack/dist/PIC24FJ256DA206/production/libbtstack.a(rfcomm.o)
                  0x016008                  rfcomm_decline_connection_internal

.text.hci_transport_mchpusb_tasks
                  0x01602a         0x22
 .text.hci_transport_mchpusb_tasks
                  0x01602a         0x22 ../libbtstack/dist/PIC24FJ256DA206/production/libbtstack.a(hci_transport_mchpusb.o)
                  0x01602a                  hci_transport_mchpusb_tasks

.text.delete_link_key
                  0x01604c         0x22
 .text.delete_link_key
                  0x01604c         0x22 ../libbtstack/dist/PIC24FJ256DA206/production/libbtstack.a(remote_device_db_memory.o)
                  0x01604c                  remote_device_db_memory.o:_delete_link_key

.text.delete_name
                  0x01606e         0x22
 .text.delete_name
                  0x01606e         0x22 ../libbtstack/dist/PIC24FJ256DA206/production/libbtstack.a(remote_device_db_memory.o)
                  0x01606e                  remote_device_db_memory.o:_delete_name

.text.l2cap_can_send_packet_now
                  0x016090         0x22
 .text.l2cap_can_send_packet_now
                  0x016090         0x22 ../libbtstack/dist/PIC24FJ256DA206/production/libbtstack.a(l2cap.o)
                  0x016090                  l2cap_can_send_packet_now

.text.de_pop_sequence
                  0x0160b2         0x22
 .text.de_pop_sequence
                  0x0160b2         0x22 ../libbtstack/dist/PIC24FJ256DA206/production/libbtstack.a(sdp_util.o)
                  0x0160b2                  de_pop_sequence

.text.ADBChannelReady
                  0x0160d4         0x20
 .text.ADBChannelReady
                  0x0160d4         0x20 ../libadb/dist/PIC24FJ256DA206/production/libadb.a(adb.o)
                  0x0160d4                  ADBChannelReady

.text.rfcomm_channel_for_multiplexer_and_dlci
                  0x0160f4         0x20
 .text.rfcomm_channel_for_multiplexer_and_dlci
                  0x0160f4         0x20 ../libbtstack/dist/PIC24FJ256DA206/production/libbtstack.a(rfcomm.o)

.text.usb_can_send_packet
                  0x016114         0x20
 .text.usb_can_send_packet
                  0x016114         0x20 ../libbtstack/dist/PIC24FJ256DA206/production/libbtstack.a(hci_transport_mchpusb.o)
                  0x016114                  hci_transport_mchpusb.o:_usb_can_send_packet

.text.l2cap_init
                  0x016134         0x20
 .text.l2cap_init
                  0x016134         0x20 ../libbtstack/dist/PIC24FJ256DA206/production/libbtstack.a(l2cap.o)
                  0x016134                  l2cap_init

.text.l2cap_finialize_channel_close
                  0x016154         0x20
 .text.l2cap_finialize_channel_close
                  0x016154         0x20 ../libbtstack/dist/PIC24FJ256DA206/production/libbtstack.a(l2cap.o)

.text.USBHostAndroidRxIsComplete
                  0x016174         0x1e
 .text.USBHostAndroidRxIsComplete
                  0x016174         0x1e ../libusb/dist/PIC24FJ256DA206/production/libusb.a(usb_host_android.o)
                  0x016174                  USBHostAndroidRxIsComplete

.text.USBHostResumeDevice
                  0x016192         0x1e
 .text.USBHostResumeDevice
                  0x016192         0x1e ../libusb/dist/PIC24FJ256DA206/production/libusb.a(usb_host.o)
                  0x016192                  USBHostResumeDevice

.text.USBHostSuspendDevice
                  0x0161b0         0x1e
 .text.USBHostSuspendDevice
                  0x0161b0         0x1e ../libusb/dist/PIC24FJ256DA206/production/libusb.a(usb_host.o)
                  0x0161b0                  USBHostSuspendDevice

.text.hci_power_control_off
                  0x0161ce         0x1e
 .text.hci_power_control_off
                  0x0161ce         0x1e ../libbtstack/dist/PIC24FJ256DA206/production/libbtstack.a(hci.o)

.text.l2cap_dispatch
                  0x0161ec         0x1e
 .text.l2cap_dispatch
                  0x0161ec         0x1e ../libbtstack/dist/PIC24FJ256DA206/production/libbtstack.a(l2cap.o)
                  0x0161ec                  l2cap_dispatch

.text.l2cap_decline_connection_internal
                  0x01620a         0x1e
 .text.l2cap_decline_connection_internal
                  0x01620a         0x1e ../libbtstack/dist/PIC24FJ256DA206/production/libbtstack.a(l2cap.o)
                  0x01620a                  l2cap_decline_connection_internal

.text.sdp_get_record_for_handle
                  0x016228         0x1e
 .text.sdp_get_record_for_handle
                  0x016228         0x1e ../libbtstack/dist/PIC24FJ256DA206/production/libbtstack.a(sdp.o)
                  0x016228                  sdp_get_record_for_handle

.text.USBHostResetDevice
                  0x016246         0x1c
 .text.USBHostResetDevice
                  0x016246         0x1c ../libusb/dist/PIC24FJ256DA206/production/libusb.a(usb_host.o)
                  0x016246                  USBHostResetDevice

.text.net_store_32
                  0x016262         0x1c
 .text.net_store_32
                  0x016262         0x1c ../libbtstack/dist/PIC24FJ256DA206/production/libbtstack.a(utils.o)
                  0x016262                  net_store_32

.text.crc8        0x01627e         0x1c
 .text.crc8       0x01627e         0x1c ../libbtstack/dist/PIC24FJ256DA206/production/libbtstack.a(utils.o)
                  0x01627e                  crc8

.text.hci_number_free_acl_slots
                  0x01629a         0x1c
 .text.hci_number_free_acl_slots
                  0x01629a         0x1c ../libbtstack/dist/PIC24FJ256DA206/production/libbtstack.a(hci.o)
                  0x01629a                  hci_number_free_acl_slots

.text.hci_number_outgoing_packets
                  0x0162b6         0x1c
 .text.hci_number_outgoing_packets
                  0x0162b6         0x1c ../libbtstack/dist/PIC24FJ256DA206/production/libbtstack.a(hci.o)
                  0x0162b6                  hci_number_outgoing_packets

.text.rfcomm_disconnect_internal
                  0x0162d2         0x1c
 .text.rfcomm_disconnect_internal
                  0x0162d2         0x1c ../libbtstack/dist/PIC24FJ256DA206/production/libbtstack.a(rfcomm.o)
                  0x0162d2                  rfcomm_disconnect_internal

.text.l2cap_accept_connection_internal
                  0x0162ee         0x1c
 .text.l2cap_accept_connection_internal
                  0x0162ee         0x1c ../libbtstack/dist/PIC24FJ256DA206/production/libbtstack.a(l2cap.o)
                  0x0162ee                  l2cap_accept_connection_internal

.text.l2cap_disconnect_internal
                  0x01630a         0x1c
 .text.l2cap_disconnect_internal
                  0x01630a         0x1c ../libbtstack/dist/PIC24FJ256DA206/production/libbtstack.a(l2cap.o)
                  0x01630a                  l2cap_disconnect_internal

.text.de_push_sequence
                  0x016326         0x1c
 .text.de_push_sequence
                  0x016326         0x1c ../libbtstack/dist/PIC24FJ256DA206/production/libbtstack.a(sdp_util.o)
                  0x016326                  de_push_sequence

.text.sdp_set_attribute_value_for_attribute_id
                  0x016342         0x1c
 .text.sdp_set_attribute_value_for_attribute_id
                  0x016342         0x1c ../libbtstack/dist/PIC24FJ256DA206/production/libbtstack.a(sdp_util.o)
                  0x016342                  sdp_set_attribute_value_for_attribute_id

.text.sdp_append_attributes_in_attributeIDList
                  0x01635e         0x1c
 .text.sdp_append_attributes_in_attributeIDList
                  0x01635e         0x1c ../libbtstack/dist/PIC24FJ256DA206/production/libbtstack.a(sdp_util.o)
                  0x01635e                  sdp_append_attributes_in_attributeIDList

.text.ConnectionCloseChannel
                  0x01637a         0x1a
 .text.ConnectionCloseChannel
                  0x01637a         0x1a ../libconn/dist/PIC24FJ256DA206/production/libconn.a(connection.o)
                  0x01637a                  ConnectionCloseChannel

.text.BTTasks     0x016394         0x1a
 .text.BTTasks    0x016394         0x1a ../libconn/dist/PIC24FJ256DA206/production/libconn.a(bt_app.o)
                  0x016394                  BTTasks

.text.ADBBufferUnref
                  0x0163ae         0x1a
 .text.ADBBufferUnref
                  0x0163ae         0x1a ../libadb/dist/PIC24FJ256DA206/production/libadb.a(adb.o)
                  0x0163ae                  ADBBufferUnref

.text.USBHostAndroidTxIsComplete
                  0x0163c8         0x1a
 .text.USBHostAndroidTxIsComplete
                  0x0163c8         0x1a ../libusb/dist/PIC24FJ256DA206/production/libusb.a(usb_host_android.o)
                  0x0163c8                  USBHostAndroidTxIsComplete

.text.bt_store_32
                  0x0163e2         0x1a
 .text.bt_store_32
                  0x0163e2         0x1a ../libbtstack/dist/PIC24FJ256DA206/production/libbtstack.a(utils.o)
                  0x0163e2                  bt_store_32

.text.bt_flip_addr
                  0x0163fc         0x1a
 .text.bt_flip_addr
                  0x0163fc         0x1a ../libbtstack/dist/PIC24FJ256DA206/production/libbtstack.a(utils.o)
                  0x0163fc                  bt_flip_addr

.text.connection_for_handle
                  0x016416         0x1a
 .text.connection_for_handle
                  0x016416         0x1a ../libbtstack/dist/PIC24FJ256DA206/production/libbtstack.a(hci.o)
                  0x016416                  connection_for_handle

.text.hci_close
                  0x016430         0x1a
 .text.hci_close
                  0x016430         0x1a ../libbtstack/dist/PIC24FJ256DA206/production/libbtstack.a(hci.o)
                  0x016430                  hci_close

.text.l2cap_get_channel_for_local_cid
                  0x01644a         0x1a
 .text.l2cap_get_channel_for_local_cid
                  0x01644a         0x1a ../libbtstack/dist/PIC24FJ256DA206/production/libbtstack.a(l2cap.o)
                  0x01644a                  l2cap_get_channel_for_local_cid

.text.l2cap_get_remote_mtu_for_local_cid
                  0x016464         0x1a
 .text.l2cap_get_remote_mtu_for_local_cid
                  0x016464         0x1a ../libbtstack/dist/PIC24FJ256DA206/production/libbtstack.a(l2cap.o)
                  0x016464                  l2cap_get_remote_mtu_for_local_cid

.text.l2cap_packet_handler
                  0x01647e         0x1a
 .text.l2cap_packet_handler
                  0x01647e         0x1a ../libbtstack/dist/PIC24FJ256DA206/production/libbtstack.a(l2cap.o)
                  0x01647e                  l2cap.o:_l2cap_packet_handler

.text.sdp_unregister_services_for_connection
                  0x016498         0x1a
 .text.sdp_unregister_services_for_connection
                  0x016498         0x1a ../libbtstack/dist/PIC24FJ256DA206/production/libbtstack.a(sdp.o)
                  0x016498                  sdp_unregister_services_for_connection

.text.sdp_record_matches_service_search_pattern
                  0x0164b2         0x1a
 .text.sdp_record_matches_service_search_pattern
                  0x0164b2         0x1a ../libbtstack/dist/PIC24FJ256DA206/production/libbtstack.a(sdp_util.o)
                  0x0164b2                  sdp_record_matches_service_search_pattern

.text.USB_ApplicationEventHandler
                  0x0164cc         0x18
 .text.USB_ApplicationEventHandler
                  0x0164cc         0x18 ../libconn/dist/PIC24FJ256DA206/production/libconn.a(connection.o)
                  0x0164cc                  USB_ApplicationEventHandler

.text.hci_send_cmd
                  0x0164e4         0x18
 .text.hci_send_cmd
                  0x0164e4         0x18 ../libbtstack/dist/PIC24FJ256DA206/production/libbtstack.a(hci.o)
                  0x0164e4                  hci_send_cmd

.text.rfcomm_send_ua
                  0x0164fc         0x18
 .text.rfcomm_send_ua
                  0x0164fc         0x18 ../libbtstack/dist/PIC24FJ256DA206/production/libbtstack.a(rfcomm.o)

.text.rfcomm_send_dm_pf
                  0x016514         0x18
 .text.rfcomm_send_dm_pf
                  0x016514         0x18 ../libbtstack/dist/PIC24FJ256DA206/production/libbtstack.a(rfcomm.o)

.text.de_get_len
                  0x01652c         0x18
 .text.de_get_len
                  0x01652c         0x18 ../libbtstack/dist/PIC24FJ256DA206/production/libbtstack.a(sdp_util.o)
                  0x01652c                  de_get_len

.text.ConnectionGetMaxPacket
                  0x016544         0x16
 .text.ConnectionGetMaxPacket
                  0x016544         0x16 ../libconn/dist/PIC24FJ256DA206/production/libconn.a(connection.o)
                  0x016544                  ConnectionGetMaxPacket

.text.ADBClose    0x01655a         0x16
 .text.ADBClose
                  0x01655a         0x16 ../libadb/dist/PIC24FJ256DA206/production/libadb.a(adb.o)
                  0x01655a                  ADBClose

.text.ADBWrite    0x016570         0x16
 .text.ADBWrite
                  0x016570         0x16 ../libadb/dist/PIC24FJ256DA206/production/libadb.a(adb.o)
                  0x016570                  ADBWrite

.text.hci_power_control_sleep
                  0x016586         0x16
 .text.hci_power_control_sleep
                  0x016586         0x16 ../libbtstack/dist/PIC24FJ256DA206/production/libbtstack.a(hci.o)

.text.hci_discoverable_control
                  0x01659c         0x16
 .text.hci_discoverable_control
                  0x01659c         0x16 ../libbtstack/dist/PIC24FJ256DA206/production/libbtstack.a(hci.o)
                  0x01659c                  hci_discoverable_control

.text.rfcomm_send_sabm
                  0x0165b2         0x16
 .text.rfcomm_send_sabm
                  0x0165b2         0x16 ../libbtstack/dist/PIC24FJ256DA206/production/libbtstack.a(rfcomm.o)

.text.rfcomm_multiplexer_free
                  0x0165c8         0x16
 .text.rfcomm_multiplexer_free
                  0x0165c8         0x16 ../libbtstack/dist/PIC24FJ256DA206/production/libbtstack.a(rfcomm.o)

.text.rfcomm_channel_finalize
                  0x0165de         0x16
 .text.rfcomm_channel_finalize
                  0x0165de         0x16 ../libbtstack/dist/PIC24FJ256DA206/production/libbtstack.a(rfcomm.o)

.text.de_get_header_size
                  0x0165f4         0x16
 .text.de_get_header_size
                  0x0165f4         0x16 ../libbtstack/dist/PIC24FJ256DA206/production/libbtstack.a(sdp_util.o)
                  0x0165f4                  de_get_header_size

.text.sdp_get_attribute_value_for_attribute_id
                  0x01660a         0x16
 .text.sdp_get_attribute_value_for_attribute_id
                  0x01660a         0x16 ../libbtstack/dist/PIC24FJ256DA206/production/libbtstack.a(sdp_util.o)
                  0x01660a                  sdp_get_attribute_value_for_attribute_id

.text.spd_get_filtered_size
                  0x016620         0x16
 .text.spd_get_filtered_size
                  0x016620         0x16 ../libbtstack/dist/PIC24FJ256DA206/production/libbtstack.a(sdp_util.o)
                  0x016620                  spd_get_filtered_size

.text.sdp_record_contains_UUID128
                  0x016636         0x16
 .text.sdp_record_contains_UUID128
                  0x016636         0x16 ../libbtstack/dist/PIC24FJ256DA206/production/libbtstack.a(sdp_util.o)
                  0x016636                  sdp_record_contains_UUID128

.text.sdp_attribute_list_constains_id
                  0x01664c         0x16
 .text.sdp_attribute_list_constains_id
                  0x01664c         0x16 ../libbtstack/dist/PIC24FJ256DA206/production/libbtstack.a(sdp_util.o)
                  0x01664c                  sdp_attribute_list_constains_id

.text.de_dump_data_element
                  0x016662         0x16
 .text.de_dump_data_element
                  0x016662         0x16 ../libbtstack/dist/PIC24FJ256DA206/production/libbtstack.a(sdp_util.o)
                  0x016662                  de_dump_data_element

.text.linked_list_add
                  0x016678         0x16
 .text.linked_list_add
                  0x016678         0x16 ../libbtstack/dist/PIC24FJ256DA206/production/libbtstack.a(linked_list.o)
                  0x016678                  linked_list_add

.text.linked_list_remove
                  0x01668e         0x16
 .text.linked_list_remove
                  0x01668e         0x16 ../libbtstack/dist/PIC24FJ256DA206/production/libbtstack.a(linked_list.o)
                  0x01668e                  linked_list_remove

.text.l2cap_next_sig_id
                  0x0166a4         0x16
 .text.l2cap_next_sig_id
                  0x0166a4         0x16 ../libbtstack/dist/PIC24FJ256DA206/production/libbtstack.a(l2cap_signaling.o)
                  0x0166a4                  l2cap_next_sig_id

.text.hci_connectable_control
                  0x0166ba         0x14
 .text.hci_connectable_control
                  0x0166ba         0x14 ../libbtstack/dist/PIC24FJ256DA206/production/libbtstack.a(hci.o)
                  0x0166ba                  hci_connectable_control

.text.linked_list_add_tail
                  0x0166ce         0x14
 .text.linked_list_add_tail
                  0x0166ce         0x14 ../libbtstack/dist/PIC24FJ256DA206/production/libbtstack.a(linked_list.o)
                  0x0166ce                  linked_list_add_tail

.text.memory_pool_create
                  0x0166e2         0x14
 .text.memory_pool_create
                  0x0166e2         0x14 ../libbtstack/dist/PIC24FJ256DA206/production/libbtstack.a(memory_pool.o)
                  0x0166e2                  memory_pool_create

.text.ADBPacketSendStatus
                  0x0166f6         0x12
 .text.ADBPacketSendStatus
                  0x0166f6         0x12 ../libadb/dist/PIC24FJ256DA206/production/libadb.a(adb_packet.o)
                  0x0166f6                  ADBPacketSendStatus

.text.USBHostAndroidReset
                  0x016708         0x12
 .text.USBHostAndroidReset
                  0x016708         0x12 ../libusb/dist/PIC24FJ256DA206/production/libusb.a(usb_host_android.o)
                  0x016708                  USBHostAndroidReset

.text.USBHostBluetoothReset
                  0x01671a         0x12
 .text.USBHostBluetoothReset
                  0x01671a         0x12 ../libusb/dist/PIC24FJ256DA206/production/libusb.a(usb_host_bluetooth.o)
                  0x01671a                  USBHostBluetoothReset

.text.l2cap_register_fixed_channel
                  0x01672c         0x12
 .text.l2cap_register_fixed_channel
                  0x01672c         0x12 ../libbtstack/dist/PIC24FJ256DA206/production/libbtstack.a(l2cap.o)
                  0x01672c                  l2cap_register_fixed_channel

.text.linked_list_get_last_item
                  0x01673e         0x12
 .text.linked_list_get_last_item
                  0x01673e         0x12 ../libbtstack/dist/PIC24FJ256DA206/production/libbtstack.a(linked_list.o)
                  0x01673e                  linked_list_get_last_item

.text.ADBInit     0x016750         0x10
 .text.ADBInit    0x016750         0x10 ../libadb/dist/PIC24FJ256DA206/production/libadb.a(adb.o)
                  0x016750                  ADBInit

.text.ADBFileInit
                  0x016760         0x10
 .text.ADBFileInit
                  0x016760         0x10 ../libadb/dist/PIC24FJ256DA206/production/libadb.a(adb_file.o)
                  0x016760                  ADBFileInit

.text.l2cap_channel_ready_for_open
                  0x016770         0x10
 .text.l2cap_channel_ready_for_open
                  0x016770         0x10 ../libbtstack/dist/PIC24FJ256DA206/production/libbtstack.a(l2cap.o)

.text             0x016780          0xe
 .text            0x016780          0xe build/IOIO0023/production/timers.o
                  0x016780                  TimersInit

.text.ConnectionInit
                  0x01678e          0xe
 .text.ConnectionInit
                  0x01678e          0xe ../libconn/dist/PIC24FJ256DA206/production/libconn.a(connection.o)
                  0x01678e                  ConnectionInit

.text.AccessoryInit
                  0x01679c          0xe
 .text.AccessoryInit
                  0x01679c          0xe ../libconn/dist/PIC24FJ256DA206/production/libconn.a(accessory.o)
                  0x01679c                  AccessoryInit

.text.ADBConnected
                  0x0167aa          0xe
 .text.ADBConnected
                  0x0167aa          0xe ../libadb/dist/PIC24FJ256DA206/production/libadb.a(adb.o)
                  0x0167aa                  ADBConnected

.text.hci_create_cmd
                  0x0167b8          0xe
 .text.hci_create_cmd
                  0x0167b8          0xe ../libbtstack/dist/PIC24FJ256DA206/production/libbtstack.a(hci_cmds.o)
                  0x0167b8                  hci_create_cmd

.text.hci_update_scan_enable
                  0x0167c6          0xe
 .text.hci_update_scan_enable
                  0x0167c6          0xe ../libbtstack/dist/PIC24FJ256DA206/production/libbtstack.a(hci.o)

.text.sdp_normalize_uuid
                  0x0167d4          0xe
 .text.sdp_normalize_uuid
                  0x0167d4          0xe ../libbtstack/dist/PIC24FJ256DA206/production/libbtstack.a(sdp_util.o)
                  0x0167d4                  sdp_normalize_uuid

.text.sdp_traversal_attribute_by_id
                  0x0167e2          0xe
 .text.sdp_traversal_attribute_by_id
                  0x0167e2          0xe ../libbtstack/dist/PIC24FJ256DA206/production/libbtstack.a(sdp_util.o)
                  0x0167e2                  sdp_util.o:_sdp_traversal_attribute_by_id

.text.USBHostBluetoothGetDeviceId
                  0x0167f0          0xc
 .text.USBHostBluetoothGetDeviceId
                  0x0167f0          0xc ../libusb/dist/PIC24FJ256DA206/production/libusb.a(usb_host_bluetooth.o)
                  0x0167f0                  USBHostBluetoothGetDeviceId

.text.USBHostBluetoothReadBulk
                  0x0167fc          0xc
 .text.USBHostBluetoothReadBulk
                  0x0167fc          0xc ../libusb/dist/PIC24FJ256DA206/production/libusb.a(usb_host_bluetooth.o)
                  0x0167fc                  USBHostBluetoothReadBulk

.text.USBHostBluetoothReadInt
                  0x016808          0xc
 .text.USBHostBluetoothReadInt
                  0x016808          0xc ../libusb/dist/PIC24FJ256DA206/production/libusb.a(usb_host_bluetooth.o)
                  0x016808                  USBHostBluetoothReadInt

.text.USBHostBluetoothWriteBulk
                  0x016814          0xc
 .text.USBHostBluetoothWriteBulk
                  0x016814          0xc ../libusb/dist/PIC24FJ256DA206/production/libusb.a(usb_host_bluetooth.o)
                  0x016814                  USBHostBluetoothWriteBulk

.text.USBHostBluetoothWriteControl
                  0x016820          0xc
 .text.USBHostBluetoothWriteControl
                  0x016820          0xc ../libusb/dist/PIC24FJ256DA206/production/libusb.a(usb_host_bluetooth.o)
                  0x016820                  USBHostBluetoothWriteControl

.text.hexdump     0x01682c          0xc
 .text.hexdump    0x01682c          0xc ../libbtstack/dist/PIC24FJ256DA206/production/libbtstack.a(utils.o)
                  0x01682c                  hexdump

.text.hci_drop_link_key_for_bd_addr
                  0x016838          0xc
 .text.hci_drop_link_key_for_bd_addr
                  0x016838          0xc ../libbtstack/dist/PIC24FJ256DA206/production/libbtstack.a(hci.o)
                  0x016838                  hci_drop_link_key_for_bd_addr

.text.rfcomm_init
                  0x016844          0xc
 .text.rfcomm_init
                  0x016844          0xc ../libbtstack/dist/PIC24FJ256DA206/production/libbtstack.a(rfcomm.o)
                  0x016844                  rfcomm_init

.text.sdp_init    0x016850          0xc
 .text.sdp_init
                  0x016850          0xc ../libbtstack/dist/PIC24FJ256DA206/production/libbtstack.a(sdp.o)
                  0x016850                  sdp_init

.text.linked_list_empty
                  0x01685c          0xc
 .text.linked_list_empty
                  0x01685c          0xc ../libbtstack/dist/PIC24FJ256DA206/production/libbtstack.a(linked_list.o)
                  0x01685c                  linked_list_empty

.text.memory_pool_get
                  0x016868          0xc
 .text.memory_pool_get
                  0x016868          0xc ../libbtstack/dist/PIC24FJ256DA206/production/libbtstack.a(memory_pool.o)
                  0x016868                  memory_pool_get

.text.AccessoryOpenChannel
                  0x016874          0xa
 .text.AccessoryOpenChannel
                  0x016874          0xa ../libconn/dist/PIC24FJ256DA206/production/libconn.a(accessory.o)
                  0x016874                  AccessoryOpenChannel

.text.AccessoryCloseChannel
                  0x01687e          0xa
 .text.AccessoryCloseChannel
                  0x01687e          0xa ../libconn/dist/PIC24FJ256DA206/production/libconn.a(accessory.o)
                  0x01687e                  AccessoryCloseChannel

.text.BTAccepting
                  0x016888          0xa
 .text.BTAccepting
                  0x016888          0xa ../libconn/dist/PIC24FJ256DA206/production/libconn.a(bt_app.o)
                  0x016888                  BTAccepting

.text.BTWrite     0x016892          0xa
 .text.BTWrite    0x016892          0xa ../libconn/dist/PIC24FJ256DA206/production/libconn.a(bt_app.o)
                  0x016892                  BTWrite

.text.USBHostDeviceSpecificClientDriver
                  0x01689c          0xa
 .text.USBHostDeviceSpecificClientDriver
                  0x01689c          0xa ../libusb/dist/PIC24FJ256DA206/production/libusb.a(usb_host.o)
                  0x01689c                  USBHostDeviceSpecificClientDriver

.text.bt_store_16
                  0x0168a6          0xa
 .text.bt_store_16
                  0x0168a6          0xa ../libbtstack/dist/PIC24FJ256DA206/production/libbtstack.a(utils.o)
                  0x0168a6                  bt_store_16

.text.net_store_16
                  0x0168b0          0xa
 .text.net_store_16
                  0x0168b0          0xa ../libbtstack/dist/PIC24FJ256DA206/production/libbtstack.a(utils.o)
                  0x0168b0                  net_store_16

.text.crc8_calc
                  0x0168ba          0xa
 .text.crc8_calc
                  0x0168ba          0xa ../libbtstack/dist/PIC24FJ256DA206/production/libbtstack.a(utils.o)
                  0x0168ba                  crc8_calc

.text.de_create_sequence
                  0x0168c4          0xa
 .text.de_create_sequence
                  0x0168c4          0xa ../libbtstack/dist/PIC24FJ256DA206/production/libbtstack.a(sdp_util.o)
                  0x0168c4                  de_create_sequence

.text.AccessoryWrite
                  0x0168ce          0x8
 .text.AccessoryWrite
                  0x0168ce          0x8 ../libconn/dist/PIC24FJ256DA206/production/libconn.a(accessory.o)
                  0x0168ce                  AccessoryWrite

.text.ADBBufferRef
                  0x0168d6          0x8
 .text.ADBBufferRef
                  0x0168d6          0x8 ../libadb/dist/PIC24FJ256DA206/production/libadb.a(adb.o)
                  0x0168d6                  ADBBufferRef

.text.ADBPacketReset
                  0x0168de          0x8
 .text.ADBPacketReset
                  0x0168de          0x8 ../libadb/dist/PIC24FJ256DA206/production/libadb.a(adb_packet.o)
                  0x0168de                  ADBPacketReset

.text.rfcomm_register_service_internal
                  0x0168e6          0x8
 .text.rfcomm_register_service_internal
                  0x0168e6          0x8 ../libbtstack/dist/PIC24FJ256DA206/production/libbtstack.a(rfcomm.o)
                  0x0168e6                  rfcomm_register_service_internal

.text.rfcomm_register_service_with_initial_credits_internal
                  0x0168ee          0x8
 .text.rfcomm_register_service_with_initial_credits_internal
                  0x0168ee          0x8 ../libbtstack/dist/PIC24FJ256DA206/production/libbtstack.a(rfcomm.o)
                  0x0168ee                  rfcomm_register_service_with_initial_credits_internal

.text.rfcomm_create_channel_internal
                  0x0168f6          0x8
 .text.rfcomm_create_channel_internal
                  0x0168f6          0x8 ../libbtstack/dist/PIC24FJ256DA206/production/libbtstack.a(rfcomm.o)
                  0x0168f6                  rfcomm_create_channel_internal

.text.rfcomm_create_channel_with_initial_credits_internal
                  0x0168fe          0x8
 .text.rfcomm_create_channel_with_initial_credits_internal
                  0x0168fe          0x8 ../libbtstack/dist/PIC24FJ256DA206/production/libbtstack.a(rfcomm.o)
                  0x0168fe                  rfcomm_create_channel_with_initial_credits_internal

.text.btstack_memory_hci_connection_free
                  0x016906          0x8
 .text.btstack_memory_hci_connection_free
                  0x016906          0x8 ../libbtstack/dist/PIC24FJ256DA206/production/libbtstack.a(btstack_memory.o)
                  0x016906                  btstack_memory_hci_connection_free

.text.btstack_memory_l2cap_service_free
                  0x01690e          0x8
 .text.btstack_memory_l2cap_service_free
                  0x01690e          0x8 ../libbtstack/dist/PIC24FJ256DA206/production/libbtstack.a(btstack_memory.o)
                  0x01690e                  btstack_memory_l2cap_service_free

.text.btstack_memory_l2cap_channel_free
                  0x016916          0x8
 .text.btstack_memory_l2cap_channel_free
                  0x016916          0x8 ../libbtstack/dist/PIC24FJ256DA206/production/libbtstack.a(btstack_memory.o)
                  0x016916                  btstack_memory_l2cap_channel_free

.text.btstack_memory_rfcomm_multiplexer_free
                  0x01691e          0x8
 .text.btstack_memory_rfcomm_multiplexer_free
                  0x01691e          0x8 ../libbtstack/dist/PIC24FJ256DA206/production/libbtstack.a(btstack_memory.o)
                  0x01691e                  btstack_memory_rfcomm_multiplexer_free

.text.btstack_memory_rfcomm_service_free
                  0x016926          0x8
 .text.btstack_memory_rfcomm_service_free
                  0x016926          0x8 ../libbtstack/dist/PIC24FJ256DA206/production/libbtstack.a(btstack_memory.o)
                  0x016926                  btstack_memory_rfcomm_service_free

.text.btstack_memory_rfcomm_channel_free
                  0x01692e          0x8
 .text.btstack_memory_rfcomm_channel_free
                  0x01692e          0x8 ../libbtstack/dist/PIC24FJ256DA206/production/libbtstack.a(btstack_memory.o)
                  0x01692e                  btstack_memory_rfcomm_channel_free

.text.btstack_memory_db_mem_device_link_key_free
                  0x016936          0x8
 .text.btstack_memory_db_mem_device_link_key_free
                  0x016936          0x8 ../libbtstack/dist/PIC24FJ256DA206/production/libbtstack.a(btstack_memory.o)
                  0x016936                  btstack_memory_db_mem_device_link_key_free

.text.l2cap_get_outgoing_buffer
                  0x01693e          0x8
 .text.l2cap_get_outgoing_buffer
                  0x01693e          0x8 ../libbtstack/dist/PIC24FJ256DA206/production/libbtstack.a(l2cap.o)
                  0x01693e                  l2cap_get_outgoing_buffer

.text.l2cap_max_mtu
                  0x016946          0x8
 .text.l2cap_max_mtu
                  0x016946          0x8 ../libbtstack/dist/PIC24FJ256DA206/production/libbtstack.a(l2cap.o)
                  0x016946                  l2cap_max_mtu

.text.sdp_register_packet_handler
                  0x01694e          0x8
 .text.sdp_register_packet_handler
                  0x01694e          0x8 ../libbtstack/dist/PIC24FJ256DA206/production/libbtstack.a(sdp.o)
                  0x01694e                  sdp_register_packet_handler

.text.l2cap_next_local_cid
                  0x016956          0x8
 .text.l2cap_next_local_cid
                  0x016956          0x8 ../libbtstack/dist/PIC24FJ256DA206/production/libbtstack.a(l2cap_signaling.o)
                  0x016956                  l2cap_next_local_cid

.text.ConnectionOpenChannelAccessory
                  0x01695e          0x6
 .text.ConnectionOpenChannelAccessory
                  0x01695e          0x6 ../libconn/dist/PIC24FJ256DA206/production/libconn.a(connection.o)
                  0x01695e                  ConnectionOpenChannelAccessory

.text.AccessoryShutdown
                  0x016964          0x6
 .text.AccessoryShutdown
                  0x016964          0x6 ../libconn/dist/PIC24FJ256DA206/production/libconn.a(accessory.o)
                  0x016964                  AccessoryShutdown

.text.ADBAttached
                  0x01696a          0x6
 .text.ADBAttached
                  0x01696a          0x6 ../libadb/dist/PIC24FJ256DA206/production/libadb.a(adb.o)
                  0x01696a                  ADBAttached

.text.ADBPacketRecv
                  0x016970          0x6
 .text.ADBPacketRecv
                  0x016970          0x6 ../libadb/dist/PIC24FJ256DA206/production/libadb.a(adb_packet.o)
                  0x016970                  ADBPacketRecv

.text.btstack_memory_hci_connection_get
                  0x016976          0x6
 .text.btstack_memory_hci_connection_get
                  0x016976          0x6 ../libbtstack/dist/PIC24FJ256DA206/production/libbtstack.a(btstack_memory.o)
                  0x016976                  btstack_memory_hci_connection_get

.text.btstack_memory_l2cap_service_get
                  0x01697c          0x6
 .text.btstack_memory_l2cap_service_get
                  0x01697c          0x6 ../libbtstack/dist/PIC24FJ256DA206/production/libbtstack.a(btstack_memory.o)
                  0x01697c                  btstack_memory_l2cap_service_get

.text.btstack_memory_l2cap_channel_get
                  0x016982          0x6
 .text.btstack_memory_l2cap_channel_get
                  0x016982          0x6 ../libbtstack/dist/PIC24FJ256DA206/production/libbtstack.a(btstack_memory.o)
                  0x016982                  btstack_memory_l2cap_channel_get

.text.btstack_memory_rfcomm_multiplexer_get
                  0x016988          0x6
 .text.btstack_memory_rfcomm_multiplexer_get
                  0x016988          0x6 ../libbtstack/dist/PIC24FJ256DA206/production/libbtstack.a(btstack_memory.o)
                  0x016988                  btstack_memory_rfcomm_multiplexer_get

.text.btstack_memory_rfcomm_service_get
                  0x01698e          0x6
 .text.btstack_memory_rfcomm_service_get
                  0x01698e          0x6 ../libbtstack/dist/PIC24FJ256DA206/production/libbtstack.a(btstack_memory.o)
                  0x01698e                  btstack_memory_rfcomm_service_get

.text.btstack_memory_rfcomm_channel_get
                  0x016994          0x6
 .text.btstack_memory_rfcomm_channel_get
                  0x016994          0x6 ../libbtstack/dist/PIC24FJ256DA206/production/libbtstack.a(btstack_memory.o)
                  0x016994                  btstack_memory_rfcomm_channel_get

.text.btstack_memory_db_mem_device_link_key_get
                  0x01699a          0x6
 .text.btstack_memory_db_mem_device_link_key_get
                  0x01699a          0x6 ../libbtstack/dist/PIC24FJ256DA206/production/libbtstack.a(btstack_memory.o)
                  0x01699a                  btstack_memory_db_mem_device_link_key_get

.text.l2cap_block_new_credits
                  0x0169a0          0x6
 .text.l2cap_block_new_credits
                  0x0169a0          0x6 ../libbtstack/dist/PIC24FJ256DA206/production/libbtstack.a(l2cap.o)
                  0x0169a0                  l2cap_block_new_credits

.text.de_get_size_type
                  0x0169a6          0x6
 .text.de_get_size_type
                  0x0169a6          0x6 ../libbtstack/dist/PIC24FJ256DA206/production/libbtstack.a(sdp_util.o)
                  0x0169a6                  de_get_size_type

.text.de_get_element_type
                  0x0169ac          0x6
 .text.de_get_element_type
                  0x0169ac          0x6 ../libbtstack/dist/PIC24FJ256DA206/production/libbtstack.a(sdp_util.o)
                  0x0169ac                  de_get_element_type

.text.de_store_descriptor
                  0x0169b2          0x6
 .text.de_store_descriptor
                  0x0169b2          0x6 ../libbtstack/dist/PIC24FJ256DA206/production/libbtstack.a(sdp_util.o)

.text.linked_item_set_user
                  0x0169b8          0x6
 .text.linked_item_set_user
                  0x0169b8          0x6 ../libbtstack/dist/PIC24FJ256DA206/production/libbtstack.a(linked_list.o)
                  0x0169b8                  linked_item_set_user

.text.hci_dump_log
                  0x0169be          0x6
 .text.hci_dump_log
                  0x0169be          0x6 ../libbtstack/dist/PIC24FJ256DA206/production/libbtstack.a(hci_dump.o)
                  0x0169be                  hci_dump_log

.text.memory_pool_free
                  0x0169c4          0x6
 .text.memory_pool_free
                  0x0169c4          0x6 ../libbtstack/dist/PIC24FJ256DA206/production/libbtstack.a(memory_pool.o)
                  0x0169c4                  memory_pool_free

.text.ConnectionOpenChannelBtServer
                  0x0169ca          0x4
 .text.ConnectionOpenChannelBtServer
                  0x0169ca          0x4 ../libconn/dist/PIC24FJ256DA206/production/libconn.a(connection.o)
                  0x0169ca                  ConnectionOpenChannelBtServer

.text.BTSetCallback
                  0x0169ce          0x4
 .text.BTSetCallback
                  0x0169ce          0x4 ../libconn/dist/PIC24FJ256DA206/production/libconn.a(bt_app.o)
                  0x0169ce                  BTSetCallback

.text.BTCanWrite
                  0x0169d2          0x4
 .text.BTCanWrite
                  0x0169d2          0x4 ../libconn/dist/PIC24FJ256DA206/production/libconn.a(bt_app.o)
                  0x0169d2                  BTCanWrite

.text.BTClose     0x0169d6          0x4
 .text.BTClose    0x0169d6          0x4 ../libconn/dist/PIC24FJ256DA206/production/libconn.a(bt_app.o)
                  0x0169d6                  BTClose

.text.USBHostGetDeviceInfo
                  0x0169da          0x4
 .text.USBHostGetDeviceInfo
                  0x0169da          0x4 ../libusb/dist/PIC24FJ256DA206/production/libusb.a(usb_host.o)
                  0x0169da                  USBHostGetDeviceInfo

.text.hci_usable_acl_packet_types
                  0x0169de          0x4
 .text.hci_usable_acl_packet_types
                  0x0169de          0x4 ../libbtstack/dist/PIC24FJ256DA206/production/libbtstack.a(hci.o)
                  0x0169de                  hci_usable_acl_packet_types

.text.hci_get_outgoing_acl_packet_buffer
                  0x0169e2          0x4
 .text.hci_get_outgoing_acl_packet_buffer
                  0x0169e2          0x4 ../libbtstack/dist/PIC24FJ256DA206/production/libbtstack.a(hci.o)
                  0x0169e2                  hci_get_outgoing_acl_packet_buffer

.text.hci_max_acl_data_packet_length
                  0x0169e6          0x4
 .text.hci_max_acl_data_packet_length
                  0x0169e6          0x4 ../libbtstack/dist/PIC24FJ256DA206/production/libbtstack.a(hci.o)
                  0x0169e6                  hci_max_acl_data_packet_length

.text.hci_register_packet_handler
                  0x0169ea          0x4
 .text.hci_register_packet_handler
                  0x0169ea          0x4 ../libbtstack/dist/PIC24FJ256DA206/production/libbtstack.a(hci.o)
                  0x0169ea                  hci_register_packet_handler

.text.rfcomm_register_packet_handler
                  0x0169ee          0x4
 .text.rfcomm_register_packet_handler
                  0x0169ee          0x4 ../libbtstack/dist/PIC24FJ256DA206/production/libbtstack.a(rfcomm.o)
                  0x0169ee                  rfcomm_register_packet_handler

.text.usb_register_packet_handler
                  0x0169f2          0x4
 .text.usb_register_packet_handler
                  0x0169f2          0x4 ../libbtstack/dist/PIC24FJ256DA206/production/libbtstack.a(hci_transport_mchpusb.o)
                  0x0169f2                  hci_transport_mchpusb.o:_usb_register_packet_handler

.text.usb_get_transport_name
                  0x0169f6          0x4
 .text.usb_get_transport_name
                  0x0169f6          0x4 ../libbtstack/dist/PIC24FJ256DA206/production/libbtstack.a(hci_transport_mchpusb.o)
                  0x0169f6                  hci_transport_mchpusb.o:_usb_get_transport_name

.text.l2cap_register_packet_handler
                  0x0169fa          0x4
 .text.l2cap_register_packet_handler
                  0x0169fa          0x4 ../libbtstack/dist/PIC24FJ256DA206/production/libbtstack.a(l2cap.o)
                  0x0169fa                  l2cap_register_packet_handler

.text.linked_item_get_user
                  0x0169fe          0x4
 .text.linked_item_get_user
                  0x0169fe          0x4 ../libbtstack/dist/PIC24FJ256DA206/production/libbtstack.a(linked_list.o)
                  0x0169fe                  linked_item_get_user

.text.ConnectionResetUSB
                  0x016a02          0x2
 .text.ConnectionResetUSB
                  0x016a02          0x2 ../libconn/dist/PIC24FJ256DA206/production/libconn.a(connection.o)
                  0x016a02                  ConnectionResetUSB

.text.ConnectionOpenChannelAdb
                  0x016a04          0x2
 .text.ConnectionOpenChannelAdb
                  0x016a04          0x2 ../libconn/dist/PIC24FJ256DA206/production/libconn.a(connection.o)
                  0x016a04                  ConnectionOpenChannelAdb

.text.DummyCallback
                  0x016a06          0x4
 .text.DummyCallback
                  0x016a06          0x2 ../libconn/dist/PIC24FJ256DA206/production/libconn.a(accessory.o)
                  0x016a06                  accessory.o:_DummyCallback
 .text.DummyCallback
                  0x016a08          0x2 ../libconn/dist/PIC24FJ256DA206/production/libconn.a(bt_app.o)
                  0x016a08                  bt_app.o:_DummyCallback

.text.BTShutdown
                  0x016a0a          0x2
 .text.BTShutdown
                  0x016a0a          0x2 ../libconn/dist/PIC24FJ256DA206/production/libconn.a(bt_app.o)
                  0x016a0a                  BTShutdown

.text.printUUID
                  0x016a0c          0x2
 .text.printUUID
                  0x016a0c          0x2 ../libbtstack/dist/PIC24FJ256DA206/production/libbtstack.a(utils.o)
                  0x016a0c                  printUUID

.text.print_bd_addr
                  0x016a0e          0x2
 .text.print_bd_addr
                  0x016a0e          0x2 ../libbtstack/dist/PIC24FJ256DA206/production/libbtstack.a(utils.o)
                  0x016a0e                  print_bd_addr

.text.hci_connection_timeout_handler
                  0x016a10          0x2
 .text.hci_connection_timeout_handler
                  0x016a10          0x2 ../libbtstack/dist/PIC24FJ256DA206/production/libbtstack.a(hci.o)
                  0x016a10                  hci.o:_hci_connection_timeout_handler

.text.dummy_handler
                  0x016a12          0x2
 .text.dummy_handler
                  0x016a12          0x2 ../libbtstack/dist/PIC24FJ256DA206/production/libbtstack.a(hci.o)
                  0x016a12                  hci.o:_dummy_handler

.text.btstack_memory_db_mem_device_name_get
                  0x016a14          0x2
 .text.btstack_memory_db_mem_device_name_get
                  0x016a14          0x2 ../libbtstack/dist/PIC24FJ256DA206/production/libbtstack.a(btstack_memory.o)
                  0x016a14                  btstack_memory_db_mem_device_name_get

.text.btstack_memory_db_mem_device_name_free
                  0x016a16          0x2
 .text.btstack_memory_db_mem_device_name_free
                  0x016a16          0x2 ../libbtstack/dist/PIC24FJ256DA206/production/libbtstack.a(btstack_memory.o)
                  0x016a16                  btstack_memory_db_mem_device_name_free

.text.btstack_memory_db_mem_service_get
                  0x016a18          0x2
 .text.btstack_memory_db_mem_service_get
                  0x016a18          0x2 ../libbtstack/dist/PIC24FJ256DA206/production/libbtstack.a(btstack_memory.o)
                  0x016a18                  btstack_memory_db_mem_service_get

.text.btstack_memory_db_mem_service_free
                  0x016a1a          0x2
 .text.btstack_memory_db_mem_service_free
                  0x016a1a          0x2 ../libbtstack/dist/PIC24FJ256DA206/production/libbtstack.a(btstack_memory.o)
                  0x016a1a                  btstack_memory_db_mem_service_free

.text.usb_open    0x016a1c          0x2
 .text.usb_open
                  0x016a1c          0x2 ../libbtstack/dist/PIC24FJ256DA206/production/libbtstack.a(hci_transport_mchpusb.o)
                  0x016a1c                  hci_transport_mchpusb.o:_usb_open

.text.usb_close
                  0x016a1e          0x2
 .text.usb_close
                  0x016a1e          0x2 ../libbtstack/dist/PIC24FJ256DA206/production/libbtstack.a(hci_transport_mchpusb.o)
                  0x016a1e                  hci_transport_mchpusb.o:_usb_close

.text.db_open     0x016a20          0x2
 .text.db_open    0x016a20          0x2 ../libbtstack/dist/PIC24FJ256DA206/production/libbtstack.a(remote_device_db_memory.o)
                  0x016a20                  remote_device_db_memory.o:_db_open

.text.db_close    0x016a22          0x2
 .text.db_close
                  0x016a22          0x2 ../libbtstack/dist/PIC24FJ256DA206/production/libbtstack.a(remote_device_db_memory.o)
                  0x016a22                  remote_device_db_memory.o:_db_close

.text.null_packet_handler
                  0x016a24          0x2
 .text.null_packet_handler
                  0x016a24          0x2 ../libbtstack/dist/PIC24FJ256DA206/production/libbtstack.a(l2cap.o)
                  0x016a24                  l2cap.o:_null_packet_handler

.text.sdp_add_attribute
                  0x016a26          0x2
 .text.sdp_add_attribute
                  0x016a26          0x2 ../libbtstack/dist/PIC24FJ256DA206/production/libbtstack.a(sdp_util.o)
                  0x016a26                  sdp_add_attribute

.text.hci_dump_open
                  0x016a28          0x2
 .text.hci_dump_open
                  0x016a28          0x2 ../libbtstack/dist/PIC24FJ256DA206/production/libbtstack.a(hci_dump.o)
                  0x016a28                  hci_dump_open

.text.hci_dump_packet
                  0x016a2a          0x2
 .text.hci_dump_packet
                  0x016a2a          0x2 ../libbtstack/dist/PIC24FJ256DA206/production/libbtstack.a(hci_dump.o)
                  0x016a2a                  hci_dump_packet

.text.hci_dump_close
                  0x016a2c          0x2
 .text.hci_dump_close
                  0x016a2c          0x2 ../libbtstack/dist/PIC24FJ256DA206/production/libbtstack.a(hci_dump.o)
                  0x016a2c                  hci_dump_close
